(dp1
I0
S'PAD'
p2
sI1
VNN
p3
sI2
VIN
p4
sI3
VAT
p5
sI4
VJJ
p6
sI5
V.
sI6
V,
sI7
VNNS
p7
sI8
VCC
p8
sI9
VRB
p9
sI10
VNP
p10
sI11
VVB
p11
sI12
VVBN
p12
sI13
VVBD
p13
sI14
VCS
p14
sI15
VPPS
p15
sI16
VVBG
p16
sI17
VPP$
p17
sI18
VTO
p18
sI19
VPPSS
p19
sI20
VCD
p20
sI21
VNN-TL
p21
sI22
VMD
p22
sI23
VPPO
p23
sI24
VBEZ
p24
sI25
VBEDZ
p25
sI26
VAP
p26
sI27
VDT
p27
sI28
V``
p28
sI29
V''
p29
sI30
VQL
p30
sI31
VVBZ
p31
sI32
VBE
p32
sI33
VRP
p33
sI34
VWDT
p34
sI35
VHVD
p35
sI36
V*
sI37
VWRB
p36
sI38
VBER
p37
sI39
VJJ-TL
p38
sI40
VNP-TL
p39
sI41
VHV
p40
sI42
VWPS
p41
sI43
V--
p42
sI44
VBED
p43
sI45
VABN
p44
sI46
VDTI
p45
sI47
VPN
p46
sI48
VNP$
p47
sI49
VBEN
p48
sI50
VDTS
p49
sI51
VHVZ
p50
sI52
V)
sI53
V(
sI54
VNNS-TL
p51
sI55
VEX
p52
sI56
VJJR
p53
sI57
VOD
p54
sI58
VNR
p55
sI59
V:
sI60
VNN$
p56
sI61
VIN-TL
p57
sI62
VNN-HL
p58
sI63
VDO
p59
sI64
VNPS
p60
sI65
VPPL
p61
sI66
VRBR
p62
sI67
VDOD
p63
sI68
VJJT
p64
sI69
VCD-TL
p65
sI70
VMD*
p66
sI71
VAT-TL
p67
sI72
VABX
p68
sI73
VBEG
p69
sI74
VNNS-HL
p70
sI75
VUH
p71
sI76
V.-HL
p72
sI77
VVBN-TL
p73
sI78
VNP-HL
p74
sI79
VIN-HL
p75
sI80
VDO*
p76
sI81
VPPSS+MD
p77
sI82
VDOZ
p78
sI83
VCD-HL
p79
sI84
VPPS+BEZ
p80
sI85
VDOD*
p81
sI86
VJJ-HL
p82
sI87
VNN$-TL
p83
sI88
VJJS
p84
sI89
VABL
p85
sI90
VPPLS
p86
sI91
VAT-HL
p87
sI92
V'
sI93
VNR-TL
p88
sI94
VCC-TL
p89
sI95
VFW-NN
p90
sI96
VHVG
p91
sI97
VWPO
p92
sI98
VPPSS+BER
p93
sI99
VPPSS+BEM
p94
sI100
VQLP
p95
sI101
VNNS$
p96
sI102
VWP$
p97
sI103
VPPSS+HV
p98
sI104
VHVN
p99
sI105
VBEM
p100
sI106
VOD-TL
p101
sI107
V)-HL
p102
sI108
VDT+BEZ
p103
sI109
VWQL
p104
sI110
V,-HL
p105
sI111
VFW-NN-TL
p106
sI112
VPP$$
p107
sI113
V(-HL
p108
sI114
VNIL
p109
sI115
VBEDZ*
p110
sI116
VVBG-HL
p111
sI117
VPPS+MD
p112
sI118
VNP$-TL
p113
sI119
V:-HL
p114
sI120
VVBN-HL
p115
sI121
VVBG-TL
p116
sI122
VNN-TL-HL
p117
sI123
VVB-HL
p118
sI124
VCC-HL
p119
sI125
VNN-NC
p120
sI126
VBEZ*
p121
sI127
VEX+BEZ
p122
sI128
VDTX
p123
sI129
VRBT
p124
sI130
VHVD*
p125
sI131
VVB-TL
p126
sI132
VPN$
p127
sI133
VDOZ*
p128
sI134
VFW-IN
p129
sI135
VPPS+HVD
p130
sI136
VPPSS+HVD
p131
sI137
VFW-NNS
p132
sI138
VNNS$-TL
p133
sI139
VFW-JJ-TL
p134
sI140
VVBZ-HL
p135
sI141
VVB+PPO
p136
sI142
VNPS-TL
p137
sI143
VNR$
p138
sI144
VTO-HL
p139
sI145
VFW-JJ
p140
sI146
VRB-HL
p141
sI147
S'<unk>'
p142
s.