(dp1
I0
S'PAD'
p2
sI1
Vthe
p3
sI2
V,
sI3
V.
sI4
Vof
p4
sI5
Vand
p5
sI6
Vto
p6
sI7
Va
sI8
Vin
p7
sI9
Vthat
p8
sI10
Vis
p9
sI11
Vwas
p10
sI12
Vhe
p11
sI13
Vfor
p12
sI14
V``
p13
sI15
V''
p14
sI16
Vit
p15
sI17
Vwith
p16
sI18
Vas
p17
sI19
Vhis
p18
sI20
Von
p19
sI21
Vbe
p20
sI22
V;
sI23
Vat
p21
sI24
Vby
p22
sI25
Vi
sI26
Vthis
p23
sI27
Vhad
p24
sI28
V?
sI29
Vnot
p25
sI30
Vare
p26
sI31
Vbut
p27
sI32
Vfrom
p28
sI33
Vor
p29
sI34
Vhave
p30
sI35
Van
p31
sI36
Vthey
p32
sI37
Vwhich
p33
sI38
V--
p34
sI39
Vone
p35
sI40
Vyou
p36
sI41
Vwere
p37
sI42
Vher
p38
sI43
Vall
p39
sI44
Vshe
p40
sI45
Vthere
p41
sI46
Vwould
p42
sI47
Vtheir
p43
sI48
Vwe
p44
sI49
Vhim
p45
sI50
Vbeen
p46
sI51
V)
sI52
Vhas
p47
sI53
V(
sI54
Vwhen
p48
sI55
Vwho
p49
sI56
Vwill
p50
sI57
Vmore
p51
sI58
Vif
p52
sI59
Vno
p53
sI60
Vout
p54
sI61
Vso
p55
sI62
Vsaid
p56
sI63
Vwhat
p57
sI64
Vup
p58
sI65
Vits
p59
sI66
Vabout
p60
sI67
V:
sI68
Vinto
p61
sI69
Vthan
p62
sI70
Vthem
p63
sI71
Vcan
p64
sI72
Vonly
p65
sI73
Vother
p66
sI74
Vnew
p67
sI75
Vsome
p68
sI76
Vcould
p69
sI77
Vtime
p70
sI78
V!
sI79
Vthese
p71
sI80
Vtwo
p72
sI81
Vmay
p73
sI82
Vthen
p74
sI83
Vdo
p75
sI84
Vfirst
p76
sI85
Vany
p77
sI86
Vmy
p78
sI87
Vnow
p79
sI88
Vsuch
p80
sI89
Vlike
p81
sI90
Vour
p82
sI91
Vover
p83
sI92
Vman
p84
sI93
Vme
p85
sI94
Veven
p86
sI95
Vmost
p87
sI96
Vmade
p88
sI97
Valso
p89
sI98
Vafter
p90
sI99
Vdid
p91
sI100
Vmany
p92
sI101
Vbefore
p93
sI102
Vmust
p94
sI103
Vaf
p95
sI104
Vthrough
p96
sI105
Vback
p97
sI106
Vyears
p98
sI107
Vmuch
p99
sI108
Vwhere
p100
sI109
Vyour
p101
sI110
Vway
p102
sI111
Vwell
p103
sI112
Vdown
p104
sI113
Vshould
p105
sI114
Vbecause
p106
sI115
Veach
p107
sI116
Vjust
p108
sI117
Vthose
p109
sI118
Vpeople
p110
sI119
Vmr.
p111
sI120
Vtoo
p112
sI121
Vhow
p113
sI122
Vlittle
p114
sI123
Vstate
p115
sI124
Vgood
p116
sI125
Vvery
p117
sI126
Vmake
p118
sI127
Vworld
p119
sI128
Vstill
p120
sI129
Vsee
p121
sI130
Vown
p122
sI131
Vmen
p123
sI132
Vwork
p124
sI133
Vlong
p125
sI134
Vhere
p126
sI135
Vget
p127
sI136
Vbetween
p128
sI137
Vboth
p129
sI138
Vlife
p130
sI139
Vbeing
p131
sI140
Vunder
p132
sI141
Vnever
p133
sI142
Vday
p134
sI143
Vsame
p135
sI144
Vanother
p136
sI145
Vknow
p137
sI146
Vwhile
p138
sI147
Vlast
p139
sI148
Vus
p140
sI149
Vmight
p141
sI150
Vgreat
p142
sI151
Vold
p143
sI152
Vyear
p144
sI153
Voff
p145
sI154
Vcome
p146
sI155
Vsince
p147
sI156
Vagainst
p148
sI157
Vgo
p149
sI158
Vcame
p150
sI159
Vright
p151
sI160
Vused
p152
sI161
Vtake
p153
sI162
Vthree
p154
sI163
Vstates
p155
sI164
Vhimself
p156
sI165
Vfew
p157
sI166
Vuse
p158
sI167
Vhouse
p159
sI168
Vduring
p160
sI169
Vwithout
p161
sI170
Vagain
p162
sI171
Vplace
p163
sI172
Vamerican
p164
sI173
Varound
p165
sI174
Vhowever
p166
sI175
Vhome
p167
sI176
Vsmall
p168
sI177
Vfound
p169
sI178
Vmrs.
p170
sI179
V1
sI180
Vthought
p171
sI181
Vwent
p172
sI182
Vsay
p173
sI183
Vpart
p174
sI184
Vonce
p175
sI185
Vgeneral
p176
sI186
Vhigh
p177
sI187
Vupon
p178
sI188
Vschool
p179
sI189
Vevery
p180
sI190
Vdoes
p181
sI191
Vgot
p182
sI192
Vunited
p183
sI193
Vleft
p184
sI194
Vnumber
p185
sI195
Vcourse
p186
sI196
Vwar
p187
sI197
Vuntil
p188
sI198
Valways
p189
sI199
Vaway
p190
sI200
Vsomething
p191
sI201
Vfact
p192
sI202
V2
sI203
Vwater
p193
sI204
Vthough
p194
sI205
Vpublic
p195
sI206
Vput
p196
sI207
Vless
p197
sI208
Vthink
p198
sI209
Valmost
p199
sI210
Vhand
p200
sI211
Venough
p201
sI212
Vtook
p202
sI213
Vfar
p203
sI214
Vhead
p204
sI215
Vyet
p205
sI216
Vgovernment
p206
sI217
Vsystem
p207
sI218
Vset
p208
sI219
Vbetter
p209
sI220
Vtold
p210
sI221
Vnight
p211
sI222
Vnothing
p212
sI223
Vend
p213
sI224
Vwhy
p214
sI225
Veyes
p215
sI226
Vcalled
p216
sI227
Vfind
p217
sI228
Vlook
p218
sI229
Vgoing
p219
sI230
Vasked
p220
sI231
Vlater
p221
sI232
Vknew
p222
sI233
Vpoint
p223
sI234
Vnext
p224
sI235
Vprogram
p225
sI236
Vcity
p226
sI237
Vbusiness
p227
sI238
Vgroup
p228
sI239
Vgive
p229
sI240
Vtoward
p230
sI241
Vyoung
p231
sI242
Vroom
p232
sI243
Vdays
p233
sI244
Vlet
p234
sI245
Vpresident
p235
sI246
Vside
p236
sI247
Vsocial
p237
sI248
Vseveral
p238
sI249
Vgiven
p239
sI250
Vpresent
p240
sI251
Vorder
p241
sI252
Vnational
p242
sI253
Vpossible
p243
sI254
Vrather
p244
sI255
Vsecond
p245
sI256
Vper
p246
sI257
Vface
p247
sI258
Vamong
p248
sI259
Vform
p249
sI260
Vimportant
p250
sI261
Voften
p251
sI262
Vthings
p252
sI263
Vlooked
p253
sI264
Vearly
p254
sI265
Vwhite
p255
sI266
Vjohn
p256
sI267
Vcase
p257
sI268
Vlarge
p258
sI269
Vfour
p259
sI270
Vneed
p260
sI271
Vbig
p261
sI272
Vbecome
p262
sI273
Vwithin
p263
sI274
Vfelt
p264
sI275
Valong
p265
sI276
Vchildren
p266
sI277
Vsaw
p267
sI278
Vbest
p268
sI279
Vchurch
p269
sI280
Vever
p270
sI281
Vleast
p271
sI282
Vpower
p272
sI283
Vdevelopment
p273
sI284
Vseemed
p274
sI285
Vthing
p275
sI286
Vlight
p276
sI287
Vfamily
p277
sI288
Vinterest
p278
sI289
Vwant
p279
sI290
Vmind
p280
sI291
Vmembers
p281
sI292
Vcountry
p282
sI293
Varea
p283
sI294
Vothers
p284
sI295
Valthough
p285
sI296
Vturned
p286
sI297
Vdone
p287
sI298
Vopen
p288
sI299
V'
sI300
Vgod
p289
sI301
Vservice
p290
sI302
Vproblem
p291
sI303
Vkind
p292
sI304
Vcertain
p293
sI305
Vdoor
p294
sI306
Vthus
p295
sI307
Vbegan
p296
sI308
Vdifferent
p297
sI309
Vsense
p298
sI310
Vhelp
p299
sI311
Vmeans
p300
sI312
Vwhole
p301
sI313
Vmatter
p302
sI314
Vperhaps
p303
sI315
Vitself
p304
sI316
Vyork
p305
sI317
Vtimes
p306
sI318
Vlaw
p307
sI319
Vhuman
p308
sI320
Vline
p309
sI321
Vabove
p310
sI322
Vname
p311
sI323
Vexample
p312
sI324
Vaction
p313
sI325
Vcompany
p314
sI326
Vhands
p315
sI327
Vlocal
p316
sI328
Vshow
p317
sI329
V3
sI330
Vhistory
p318
sI331
Vwhether
p319
sI332
Vfive
p320
sI333
Vgave
p321
sI334
Vtoday
p322
sI335
Veither
p323
sI336
Vact
p324
sI337
Vfeet
p325
sI338
Vacross
p326
sI339
Vpast
p327
sI340
Vtaken
p328
sI341
Vquite
p329
sI342
Vanything
p330
sI343
Vhaving
p331
sI344
Vseen
p332
sI345
Vdeath
p333
sI346
Vexperience
p334
sI347
Vbody
p335
sI348
Vweek
p336
sI349
Vhalf
p337
sI350
Vreally
p338
sI351
Vfield
p339
sI352
Vcar
p340
sI353
Vword
p341
sI354
Vwords
p342
sI355
Valready
p343
sI356
Vthemselves
p344
sI357
Vinformation
p345
sI358
Vtell
p346
sI359
Vshall
p347
sI360
Vtogether
p348
sI361
Vcollege
p349
sI362
Vperiod
p350
sI363
Vmoney
p351
sI364
Vkeep
p352
sI365
Vheld
p353
sI366
Vsure
p354
sI367
Vprobably
p355
sI368
Vseems
p356
sI369
Vfree
p357
sI370
Vreal
p358
sI371
Vbehind
p359
sI372
Vcannot
p360
sI373
Vpolitical
p361
sI374
Vquestion
p362
sI375
Vair
p363
sI376
Voffice
p364
sI377
Vmaking
p365
sI378
Vbrought
p366
sI379
Vmiss
p367
sI380
Vwhose
p368
sI381
Vspecial
p369
sI382
Vheard
p370
sI383
Vproblems
p371
sI384
Vmajor
p372
sI385
Vmoment
p373
sI386
Vfederal
p374
sI387
Vago
p375
sI388
Vstudy
p376
sI389
Vbecame
p377
sI390
Vavailable
p378
sI391
Vknown
p379
sI392
Vstreet
p380
sI393
Vresult
p381
sI394
Veconomic
p382
sI395
Vboy
p383
sI396
Vreason
p384
sI397
Vposition
p385
sI398
Vchange
p386
sI399
Vsouth
p387
sI400
Vindividual
p388
sI401
Vboard
p389
sI402
Vjob
p390
sI403
Vam
p391
sI404
Vsociety
p392
sI405
Vareas
p393
sI406
Vwest
p394
sI407
Vclose
p395
sI408
Vturn
p396
sI409
Vlove
p397
sI410
Vtrue
p398
sI411
Vcommunity
p399
sI412
Vfull
p400
sI413
Vcourt
p401
sI414
Vforce
p402
sI415
Vcost
p403
sI416
Vseem
p404
sI417
Vwife
p405
sI418
Vfuture
p406
sI419
Vage
p407
sI420
Vvoice
p408
sI421
Vwanted
p409
sI422
Vdepartment
p410
sI423
Vwoman
p411
sI424
Vcenter
p412
sI425
Vcommon
p413
sI426
Vcontrol
p414
sI427
Vnecessary
p415
sI428
Vpolicy
p416
sI429
Vfollowing
p417
sI430
Vsometimes
p418
sI431
Vfront
p419
sI432
Vsix
p420
sI433
Vgirl
p421
sI434
Vclear
p422
sI435
Vland
p423
sI436
Vfurther
p424
sI437
Vmusic
p425
sI438
Vprovide
p426
sI439
Vparty
p427
sI440
Vmother
p428
sI441
Vfeel
p429
sI442
Vable
p430
sI443
Vuniversity
p431
sI444
Veducation
p432
sI445
Vlevel
p433
sI446
Vchild
p434
sI447
Vstudents
p435
sI448
Veffect
p436
sI449
Vshort
p437
sI450
Vmilitary
p438
sI451
Vrun
p439
sI452
Vstood
p440
sI453
Vtown
p441
sI454
Vmorning
p442
sI455
Vtotal
p443
sI456
Voutside
p444
sI457
Vfigure
p445
sI458
Vrate
p446
sI459
Vart
p447
sI460
Vcentury
p448
sI461
Vclass
p449
sI462
V4
sI463
Vnorth
p450
sI464
Vusually
p451
sI465
Vwashington
p452
sI466
Vtherefore
p453
sI467
Vplan
p454
sI468
Vleave
p455
sI469
Vsound
p456
sI470
Vmillion
p457
sI471
Vevidence
p458
sI472
Vtop
p459
sI473
Vblack
p460
sI474
Vstrong
p461
sI475
Vhard
p462
sI476
Vtax
p463
sI477
Vvarious
p464
sI478
Vsurface
p465
sI479
Vplay
p466
sI480
Vtype
p467
sI481
Vvalue
p468
sI482
Vbelieve
p469
sI483
Vsays
p470
sI484
Vsoon
p471
sI485
Vmean
p472
sI486
Vpeace
p473
sI487
Vnear
p474
sI488
Vmodern
p475
sI489
Vlines
p476
sI490
Vtable
p477
sI491
Vred
p478
sI492
Vroad
p479
sI493
Vbook
p480
sI494
Vsituation
p481
sI495
Vpersonal
p482
sI496
Vprocess
p483
sI497
Vminutes
p484
sI498
Vgone
p485
sI499
Videa
p486
sI500
Vnor
p487
sI501
Vschools
p488
sI502
Vincrease
p489
sI503
Valone
p490
sI504
Vwomen
p491
sI505
Venglish
p492
sI506
Vamerica
p493
sI507
Vstarted
p494
sI508
Vliving
p495
sI509
Vlonger
p496
sI510
Vcut
p497
sI511
Vdr.
p498
sI512
Vnature
p499
sI513
Vsecretary
p500
sI514
Vprivate
p501
sI515
Vfinally
p502
sI516
Vthird
p503
sI517
Vsection
p504
sI518
Vmonths
p505
sI519
Vgreater
p506
sI520
Vcall
p507
sI521
Vneeded
p508
sI522
Vfire
p509
sI523
Vexpected
p510
sI524
Vvalues
p511
sI525
Vkept
p512
sI526
Vground
p513
sI527
Vview
p514
sI528
Vpressure
p515
sI529
Vdark
p516
sI530
Veverything
p517
sI531
Vbasis
p518
sI532
Vspace
p519
sI533
Vfather
p520
sI534
Veast
p521
sI535
Vunion
p522
sI536
Vspirit
p523
sI537
Vrequired
p524
sI538
Vcomplete
p525
sI539
Vwrote
p526
sI540
Vmoved
p527
sI541
Vexcept
p528
sI542
Vsupport
p529
sI543
Vconditions
p530
sI544
Vreturn
p531
sI545
Vrecent
p532
sI546
Vattention
p533
sI547
Vlate
p534
sI548
Vparticular
p535
sI549
Vhope
p536
sI550
Vlive
p537
sI551
Vcosts
p538
sI552
Velse
p539
sI553
Vbrown
p540
sI554
Vstage
p541
sI555
Vtaking
p542
sI556
Vnations
p543
sI557
Vforces
p544
sI558
Vbeyond
p545
sI559
Vcoming
p546
sI560
Vperson
p547
sI561
Vhours
p548
sI562
Vread
p549
sI563
Vinside
p550
sI564
Vreport
p551
sI565
Vmaterial
p552
sI566
Vdead
p553
sI567
Vlost
p554
sI568
Vmiles
p555
sI569
Vdata
p556
sI570
Vlooking
p557
sI571
Vheart
p558
sI572
Vlow
p559
sI573
Vinstead
p560
sI574
Vfeeling
p561
sI575
Vfollowed
p562
sI576
Vmakes
p563
sI577
Vadded
p564
sI578
Vsingle
p565
sI579
V1960
p566
sI580
Vamount
p567
sI581
Vpay
p568
sI582
Vhundred
p569
sI583
Vresearch
p570
sI584
Vindustry
p571
sI585
Vcold
p572
sI586
Vmove
p573
sI587
Vsimply
p574
sI588
Vincluding
p575
sI589
Vbasic
p576
sI590
Vdeveloped
p577
sI591
Vtried
p578
sI592
Vreached
p579
sI593
Vhold
p580
sI594
Vcommittee
p581
sI595
Vequipment
p582
sI596
Vdefense
p583
sI597
Visland
p584
sI598
Vshown
p585
sI599
Vactually
p586
sI600
Vreligious
p587
sI601
Vcentral
p588
sI602
Vson
p589
sI603
Vriver
p590
sI604
Vbeginning
p591
sI605
Vten
p592
sI606
Vsort
p593
sI607
Vst.
p594
sI608
Vgetting
p595
sI609
Vtrying
p596
sI610
V&
sI611
Vrest
p597
sI612
Vterms
p598
sI613
Vdoing
p599
sI614
Vreceived
p600
sI615
Vu.s.
p601
sI616
Vpicture
p602
sI617
Vindeed
p603
sI618
Vmedical
p604
sI619
Vcare
p605
sI620
Vfriends
p606
sI621
Vespecially
p607
sI622
Vdifficult
p608
sI623
Vsubject
p609
sI624
Vfine
p610
sI625
Vadministration
p611
sI626
Vhigher
p612
sI627
Vsimple
p613
sI628
Vwall
p614
sI629
Vbuilding
p615
sI630
Vwalked
p616
sI631
Vmeeting
p617
sI632
Vforeign
p618
sI633
Vbring
p619
sI634
Vfloor
p620
sI635
Vpaper
p621
sI636
Vsimilar
p622
sI637
Vrange
p623
sI638
Vpassed
p624
sI639
Vnatural
p625
sI640
Vproperty
p626
sI641
Vtraining
p627
sI642
Vfinal
p628
sI643
Vcent
p629
sI644
Vinternational
p630
sI645
Vpolice
p631
sI646
Vcounty
p632
sI647
Vgrowth
p633
sI648
Vmarket
p634
sI649
Vstart
p635
sI650
Vwritten
p636
sI651
Vtalk
p637
sI652
Vengland
p638
sI653
Vstory
p639
sI654
Vhear
p640
sI655
Vsuddenly
p641
sI656
Vneeds
p642
sI657
Vcongress
p643
sI658
Vhall
p644
sI659
Vanswer
p645
sI660
Vissue
p646
sI661
V10
p647
sI662
Vworking
p648
sI663
Vcountries
p649
sI664
Vconsidered
p650
sI665
Vlikely
p651
sI666
Vsat
p652
sI667
Vearth
p653
sI668
Vmeet
p654
sI669
Ventire
p655
sI670
Vresults
p656
sI671
Vpurpose
p657
sI672
Vhappened
p658
sI673
Vlabor
p659
sI674
Vproduction
p660
sI675
Vhair
p661
sI676
Vcases
p662
sI677
Vdifference
p663
sI678
Vstand
p664
sI679
Vwilliam
p665
sI680
Vfood
p666
sI681
Vfall
p667
sI682
Vstock
p668
sI683
Vinvolved
p669
sI684
Vearlier
p670
sI685
Vincreased
p671
sI686
Vparticularly
p672
sI687
Vwhom
p673
sI688
Vusing
p674
sI689
Vhour
p675
sI690
Vknowledge
p676
sI691
Vletter
p677
sI692
Vsent
p678
sI693
Veffort
p679
sI694
Vpaid
p680
sI695
Vbelow
p681
sI696
Vclub
p682
sI697
Vthinking
p683
sI698
Vyes
p684
sI699
Vchristian
p685
sI700
Vdeal
p686
sI701
Vblue
p687
sI702
Vpoints
p688
sI703
Vbill
p689
sI704
Vsquare
p690
sI705
Vcertainly
p691
sI706
Vready
p692
sI707
Vindustrial
p693
sI708
Vboys
p694
sI709
Videas
p695
sI710
Vtrade
p696
sI711
Vmethods
p697
sI712
Vaddition
p698
sI713
Vgirls
p699
sI714
Vdue
p700
sI715
Vmethod
p701
sI716
Vmoral
p702
sI717
Vbad
p703
sI718
V5
sI719
Vneither
p704
sI720
Vreading
p705
sI721
Vthroughout
p706
sI722
Vshowed
p707
sI723
Vdirectly
p708
sI724
Vweeks
p709
sI725
Vdecided
p710
sI726
Vnearly
p711
sI727
Vstatement
p712
sI728
Vquestions
p713
sI729
Vaccording
p714
sI730
Vcolor
p715
sI731
Vtry
p716
sI732
Vanyone
p717
sI733
Vkennedy
p718
sI734
Vprograms
p719
sI735
Vservices
p720
sI736
Vnation
p721
sI737
Vlay
p722
sI738
Vfrench
p723
sI739
Vphysical
p724
sI740
Vremember
p725
sI741
Vsize
p726
sI742
Vstrength
p727
sI743
Vcomes
p728
sI744
Vunderstand
p729
sI745
Vwestern
p730
sI746
Vmember
p731
sI747
Vrecord
p732
sI748
Vsouthern
p733
sI749
Vpopulation
p734
sI750
Vnormal
p735
sI751
Vmerely
p736
sI752
Vvolume
p737
sI753
Vappeared
p738
sI754
Vtemperature
p739
sI755
Vdistrict
p740
sI756
Vconcerned
p741
sI757
V1961
p742
sI758
Vdirection
p743
sI759
Vtrial
p744
sI760
Vaid
p745
sI761
Vsummer
p746
sI762
Vtrouble
p747
sI763
Vran
p748
sI764
Vlist
p749
sI765
Vfriend
p750
sI766
Vsales
p751
sI767
Vmaybe
p752
sI768
Vevening
p753
sI769
Vliterature
p754
sI770
Vcontinued
p755
sI771
Vinfluence
p756
sI772
Vmet
p757
sI773
Vled
p758
sI774
Vgenerally
p759
sI775
Vassociation
p760
sI776
Vprovided
p761
sI777
Varmy
p762
sI778
Vformer
p763
sI779
Vscience
p764
sI780
Vopened
p765
sI781
Vhusband
p766
sI782
Vstep
p767
sI783
Vstudent
p768
sI784
Vchance
p769
sI785
Vchanges
p770
sI786
Vmonth
p771
sI787
Vcause
p772
sI788
Vworks
p773
sI789
Vseries
p774
sI790
Vaverage
p775
sI791
Vhot
p776
sI792
Vwrong
p777
sI793
Vsystems
p778
sI794
Vdirect
p779
sI795
Veffective
p780
sI796
Vtheory
p781
sI797
Vplanning
p782
sI798
Vstopped
p783
sI799
Vsoviet
p784
sI800
Vmyself
p785
sI801
Vpiece
p786
sI802
Vgeorge
p787
sI803
Vlead
p788
sI804
Vclearly
p789
sI805
Vask
p790
sI806
Vworked
p791
sI807
Vfreedom
p792
sI808
Vmovement
p793
sI809
Vorganization
p794
sI810
Vways
p795
sI811
Vmeaning
p796
sI812
Vfear
p797
sI813
Vpress
p798
sI814
Vbeautiful
p799
sI815
Vtreatment
p800
sI816
Vbed
p801
sI817
Vspring
p802
sI818
Vforms
p803
sI819
Vlot
p804
sI820
Vnote
p805
sI821
Vconsider
p806
sI822
Vsomewhat
p807
sI823
Vefforts
p808
sI824
Vplaced
p809
sI825
Vtruth
p810
sI826
Vhotel
p811
sI827
Vnumbers
p812
sI828
Vdegree
p813
sI829
Vcarried
p814
sI830
Vrespect
p815
sI831
Vherself
p816
sI832
Vgroups
p817
sI833
Vapparently
p818
sI834
Vplant
p819
sI835
Vwide
p820
sI836
Vfarm
p821
sI837
Vmanner
p822
sI838
Veasy
p823
sI839
Vreaction
p824
sI840
Vlarger
p825
sI841
Vrecently
p826
sI842
Vlower
p827
sI843
Vgame
p828
sI844
Vimmediately
p829
sI845
Vapproach
p830
sI846
Vrunning
p831
sI847
Vcouple
p832
sI848
Vperformance
p833
sI849
Vde
p834
sI850
Voh
p835
sI851
Veye
p836
sI852
Vcharge
p837
sI853
Vfeed
p838
sI854
Vdaily
p839
sI855
Vmarch
p840
sI856
Vblood
p841
sI857
Vunderstanding
p842
sI858
Vpersons
p843
sI859
Vopportunity
p844
sI860
Varms
p845
sI861
Vc
sI862
Vadditional
p846
sI863
Vdescribed
p847
sI864
Vstop
p848
sI865
Vj.
p849
sI866
Vtechnical
p850
sI867
Vfiscal
p851
sI868
Vradio
p852
sI869
Vprogress
p853
sI870
Vtest
p854
sI871
Vdecision
p855
sI872
Vsteps
p856
sI873
Vimage
p857
sI874
Vdetermined
p858
sI875
Vwindow
p859
sI876
Vbased
p860
sI877
Vserved
p861
sI878
Vreported
p862
sI879
Vreligion
p863
sI880
Vmain
p864
sI881
Vchief
p865
sI882
Vgun
p866
sI883
Vaj
p867
sI884
Vmiddle
p868
sI885
Vbritish
p869
sI886
Vcharacter
p870
sI887
Vresponsibility
p871
sI888
Veurope
p872
sI889
Vlearned
p873
sI890
Vhorse
p874
sI891
Vs.
p875
sI892
Vappear
p876
sI893
Vaccount
p877
sI894
Vwriting
p878
sI895
Vtypes
p879
sI896
Vlength
p880
sI897
Vgreen
p881
sI898
Vactivity
p882
sI899
Vserious
p883
sI900
Vones
p884
sI901
Vnuclear
p885
sI902
Vletters
p886
sI903
Vobtained
p887
sI904
Vlived
p888
sI905
Vaudience
p889
sI906
Vforward
p890
sI907
Vspecific
p891
sI908
Vreturned
p892
sI909
Vslowly
p893
sI910
Vcorner
p894
sI911
Vactivities
p895
sI912
Vjustice
p896
sI913
Vobviously
p897
sI914
Vdoubt
p898
sI915
Vdesign
p899
sI916
V6
sI917
Vstraight
p900
sI918
Vlatter
p901
sI919
Vgives
p902
sI920
Vplane
p903
sI921
Vquality
p904
sI922
Vhit
p905
sI923
Vmoving
p906
sI924
Vsaying
p907
sI925
Vchoice
p908
sI926
Voperation
p909
sI927
Vborn
p910
sI928
Vpattern
p911
sI929
Vpoor
p912
sI930
Vstay
p913
sI931
Vseven
p914
sI932
Vinclude
p915
sI933
Va.
p916
sI934
Vfigures
p917
sI935
Vfunction
p918
sI936
V15
p919
sI937
Vshot
p920
sI938
Vstaff
p921
sI939
Vparts
p922
sI940
Vplans
p923
sI941
Vsun
p924
sI942
Vcars
p925
sI943
V30
p926
sI944
Vwhatever
p927
sI945
Vpool
p928
sI946
Vfaith
p929
sI947
Vextent
p930
sI948
Vcorps
p931
sI949
Vheavy
p932
sI950
Vball
p933
sI951
Vwish
p934
sI952
Vstandard
p935
sI953
Vcompletely
p936
sI954
Vhospital
p937
sI955
Vspeak
p938
sI956
Vlack
p939
sI957
Vwaiting
p940
sI958
Vfirm
p941
sI959
Vahead
p942
sI960
Vlanguage
p943
sI961
Vincome
p944
sI962
Vprinciple
p945
sI963
Vdeep
p946
sI964
Vdemocratic
p947
sI965
Vvisit
p948
sI966
Veffects
p949
sI967
Vindicated
p950
sI968
Vestablished
p951
sI969
Vproducts
p952
sI970
Vgrowing
p953
sI971
Vdesigned
p954
sI972
Vnone
p955
sI973
Vprice
p956
sI974
Vdistance
p957
sI975
Vexpect
p958
sI976
Vimportance
p959
sI977
Vanalysis
p960
sI978
Vpretty
p961
sI979
Vexistence
p962
sI980
Vleaders
p963
sI981
Vcontinue
p964
sI982
Vdivision
p965
sI983
Vserve
p966
sI984
Vstress
p967
sI985
Vcities
p968
sI986
Vattitude
p969
sI987
Velements
p970
sI988
Veasily
p971
sI989
Vnegro
p972
sI990
Vdetermine
p973
sI991
Vscene
p974
sI992
Vafternoon
p975
sI993
Vagreement
p976
sI994
Vhardly
p977
sI995
Vapplied
p978
sI996
V8
sI997
Vlimited
p979
sI998
Vremained
p980
sI999
Vfactors
p981
sI1000
Vwrite
p982
sI1001
Vclosed
p983
sI1002
Vsuggested
p984
sI1003
Vinterested
p985
sI1004
Vattack
p986
sI1005
Vb
sI1006
Vdrive
p987
sI1007
Vrhode
p988
sI1008
Vstation
p989
sI1009
Vmarried
p990
sI1010
Vprofessional
p991
sI1011
Vhealth
p992
sI1012
Vseason
p993
sI1013
Vreach
p994
sI1014
Vrole
p995
sI1015
Vdespite
p996
sI1016
Vcurrent
p997
sI1017
Vspent
p998
sI1018
Veight
p999
sI1019
Vplayed
p1000
sI1020
Vbecomes
p1001
sI1021
Vcovered
p1002
sI1022
Vmouth
p1003
sI1023
Vcommission
p1004
sI1024
Vmachine
p1005
sI1025
Vstudies
p1006
sI1026
Vdate
p1007
sI1027
Voriginal
p1008
sI1028
Vreasons
p1009
sI1029
Vrace
p1010
sI1030
Vteeth
p1011
sI1031
Vcouncil
p1012
sI1032
Vunit
p1013
sI1033
Vexactly
p1014
sI1034
Vbuilt
p1015
sI1035
Vrelations
p1016
sI1036
Vnews
p1017
sI1037
Vdemand
p1018
sI1038
Vsupply
p1019
sI1039
V1959
p1020
sI1040
Vprepared
p1021
sI1041
Vrelated
p1022
sI1042
Vrates
p1023
sI1043
Vrise
p1024
sI1044
Vdirector
p1025
sI1045
Vstanding
p1026
sI1046
Vtrees
p1027
sI1047
Vsunday
p1028
sI1048
Vdropped
p1029
sI1049
Vevents
p1030
sI1050
Vraised
p1031
sI1051
Vplaying
p1032
sI1052
Vofficer
p1033
sI1053
Vjames
p1034
sI1054
Vbit
p1035
sI1055
Vunless
p1036
sI1056
Vclay
p1037
sI1057
Vplaces
p1038
sI1058
Vthomas
p1039
sI1059
Vtalking
p1040
sI1060
Vmeant
p1041
sI1061
Vfacilities
p1042
sI1062
Vwalk
p1043
sI1063
Vsides
p1044
sI1064
Vdoctor
p1045
sI1065
Venergy
p1046
sI1066
Vtechniques
p1047
sI1067
Vfilled
p1048
sI1068
Vjazz
p1049
sI1069
Vgas
p1050
sI1070
Vactual
p1051
sI1071
Vknows
p1052
sI1072
Vglass
p1053
sI1073
Vpoet
p1054
sI1074
Vjune
p1055
sI1075
Vcaught
p1056
sI1076
Vpopular
p1057
sI1077
Ventered
p1058
sI1078
Vbridge
p1059
sI1079
Vhappy
p1060
sI1080
Vfight
p1061
sI1081
Vinstitutions
p1062
sI1082
Vmass
p1063
sI1083
Vconcern
p1064
sI1084
Vstyle
p1065
sI1085
Vclaim
p1066
sI1086
Vshare
p1067
sI1087
Vchicago
p1068
sI1088
Vcommunist
p1069
sI1089
Vstatus
p1070
sI1090
Vdollars
p1071
sI1091
Vthousand
p1072
sI1092
Vheat
p1073
sI1093
Vincluded
p1074
sI1094
Vfollow
p1075
sI1095
Vradiation
p1076
sI1096
Vcattle
p1077
sI1097
Vmaterials
p1078
sI1098
Vsuppose
p1079
sI1099
Vchrist
p1080
sI1100
Vconsiderable
p1081
sI1101
Vbooks
p1082
sI1102
Vsitting
p1083
sI1103
Vprimary
p1084
sI1104
Vconference
p1085
sI1105
Vchurches
p1086
sI1106
Vgiving
p1087
sI1107
Vcharles
p1088
sI1108
Vusual
p1089
sI1109
V12
p1090
sI1110
Vfilm
p1091
sI1111
Vaccepted
p1092
sI1112
Vopinion
p1093
sI1113
Vbehavior
p1094
sI1114
Vsuccessful
p1095
sI1115
Vmarriage
p1096
sI1116
Vsea
p1097
sI1117
Vconstruction
p1098
sI1118
Vhell
p1099
sI1119
Vattempt
p1100
sI1120
Voil
p1101
sI1121
Vproper
p1102
sI1122
Vsir
p1103
sI1123
Vchanged
p1104
sI1124
Vfunds
p1105
sI1125
Vworth
p1106
sI1126
Vdiscussion
p1107
sI1127
V7
sI1128
Vsource
p1108
sI1129
Vshows
p1109
sI1130
Vtradition
p1110
sI1131
Veveryone
p1111
sI1132
Vsomeone
p1112
sI1133
Vsign
p1113
sI1134
Vhighly
p1114
sI1135
Vpark
p1115
sI1136
Vwait
p1116
sI1137
Varm
p1117
sI1138
Vpractice
p1118
sI1139
Vsuccess
p1119
sI1140
Vauthority
p1120
sI1141
Vremain
p1121
sI1142
Vc.
p1122
sI1143
Vproject
p1123
sI1144
Volder
p1124
sI1145
Vlord
p1125
sI1146
Vamericans
p1126
sI1147
Vannual
p1127
sI1148
Vleadership
p1128
sI1149
Vfell
p1129
sI1150
Vprincipal
p1130
sI1151
V20
p1131
sI1152
Vobvious
p1132
sI1153
Vjack
p1133
sI1154
Vthin
p1134
sI1155
Vpieces
p1135
sI1156
Vobjective
p1136
sI1157
Vparents
p1137
sI1158
Vdinner
p1138
sI1159
Vweight
p1139
sI1160
Vrecords
p1140
sI1161
Vcondition
p1141
sI1162
Vsecurity
p1142
sI1163
Ventirely
p1143
sI1164
Vbase
p1144
sI1165
Vcomplex
p1145
sI1166
V1958
p1146
sI1167
Vmanagement
p1147
sI1168
Vfrequently
p1148
sI1169
Vcivil
p1149
sI1170
Vmike
p1150
sI1171
Vstructure
p1151
sI1172
Vmeasure
p1152
sI1173
Vcaused
p1153
sI1174
Vkitchen
p1154
sI1175
Vcorporation
p1155
sI1176
Vequal
p1156
sI1177
Vbalance
p1157
sI1178
Vpurposes
p1158
sI1179
Vproduced
p1159
sI1180
Vdance
p1160
sI1181
Vnoted
p1161
sI1182
Vpass
p1162
sI1183
Vdevelop
p1163
sI1184
Vgoes
p1164
sI1185
Vfamous
p1165
sI1186
Vclothes
p1166
sI1187
Vnames
p1167
sI1188
Vfailure
p1168
sI1189
Vlondon
p1169
sI1190
Vquickly
p1170
sI1191
Vregard
p1171
sI1192
Vpublished
p1172
sI1193
Vbottom
p1173
sI1194
Vkey
p1174
sI1195
Vking
p1175
sI1196
Vleaving
p1176
sI1197
Vrelationship
p1177
sI1198
Vcover
p1178
sI1199
Vmoreover
p1179
sI1200
Vpoetry
p1180
sI1201
Vcarry
p1181
sI1202
Vpain
p1182
sI1203
Vannounced
p1183
sI1204
Vgreatest
p1184
sI1205
Vlaws
p1185
sI1206
Venemy
p1186
sI1207
Vmanager
p1187
sI1208
Vadd
p1188
sI1209
Vbreak
p1189
sI1210
Vsources
p1190
sI1211
Vactive
p1191
sI1212
Vcheck
p1192
sI1213
Vbattle
p1193
sI1214
Vproduct
p1194
sI1215
Vfixed
p1195
sI1216
Vspoke
p1196
sI1217
Vcompanies
p1197
sI1218
Vpossibility
p1198
sI1219
Vtouch
p1199
sI1220
Vfacts
p1200
sI1221
Voperating
p1201
sI1222
Vcarefully
p1202
sI1223
Vunits
p1203
sI1224
Vbright
p1204
sI1225
Vfinished
p1205
sI1226
Vassistance
p1206
sI1227
Vmary
p1207
sI1228
Vloss
p1208
sI1229
Vfinancial
p1209
sI1230
Vcitizens
p1210
sI1231
Ve.
p1211
sI1232
Vseeing
p1212
sI1233
Vdied
p1213
sI1234
Vsignificant
p1214
sI1235
Vphilosophy
p1215
sI1236
Vrequire
p1216
sI1237
Vprevious
p1217
sI1238
Vallowed
p1218
sI1239
Vinches
p1219
sI1240
Vtakes
p1220
sI1241
Vpatient
p1221
sI1242
Vrose
p1222
sI1243
Vworkers
p1223
sI1244
Vscientific
p1224
sI1245
Vbuild
p1225
sI1246
Votherwise
p1226
sI1247
Vmusical
p1227
sI1248
Vconcept
p1228
sI1249
Vshape
p1229
sI1250
Vstated
p1230
sI1251
Vvariety
p1231
sI1252
Vstations
p1232
sI1253
Vdistribution
p1233
sI1254
Vpost
p1234
sI1255
Vgerman
p1235
sI1256
Vrules
p1236
sI1257
Vrelatively
p1237
sI1258
Vcapital
p1238
sI1259
Vmarked
p1239
sI1260
Vcaptain
p1240
sI1261
Vclasses
p1241
sI1262
Vcircumstances
p1242
sI1263
Vaffairs
p1243
sI1264
Vlearn
p1244
sI1265
Vbroad
p1245
sI1266
Vproposed
p1246
sI1267
Vsex
p1247
sI1268
Vappears
p1248
sI1269
Vimpossible
p1249
sI1270
Vnamed
p1250
sI1271
Vaware
p1251
sI1272
Vw.
p1252
sI1273
Vremains
p1253
sI1274
Vstrange
p1254
sI1275
Vcatholic
p1255
sI1276
Vreports
p1256
sI1277
Vbegin
p1257
sI1278
Voperations
p1258
sI1279
Vcollection
p1259
sI1280
Vinterests
p1260
sI1281
Vhouses
p1261
sI1282
Vopening
p1262
sI1283
Vteam
p1263
sI1284
Vprevent
p1264
sI1285
Vwinter
p1265
sI1286
Vsight
p1266
sI1287
Vspread
p1267
sI1288
Vship
p1268
sI1289
Vspeed
p1269
sI1290
Vrobert
p1270
sI1291
Vgovernor
p1271
sI1292
Voffered
p1272
sI1293
Vbank
p1273
sI1294
Vcapacity
p1274
sI1295
Vrequirements
p1275
sI1296
Vofficers
p1276
sI1297
Vregular
p1277
sI1298
Vslightly
p1278
sI1299
Vmark
p1279
sI1300
Vyesterday
p1280
sI1301
Vremembered
p1281
sI1302
Vhenry
p1282
sI1303
Vproduce
p1283
sI1304
Vinteresting
p1284
sI1305
Vcrisis
p1285
sI1306
Vinstance
p1286
sI1307
Vpoems
p1287
sI1308
Vfresh
p1288
sI1309
Vdrink
p1289
sI1310
Vpresented
p1290
sI1311
V25
p1291
sI1312
Vtrain
p1292
sI1313
Vbar
p1293
sI1314
Vyouth
p1294
sI1315
Vopposite
p1295
sI1316
Vwatched
p1296
sI1317
Vsubjects
p1297
sI1318
Vgermany
p1298
sI1319
Vlives
p1299
sI1320
Vapartment
p1300
sI1321
Vagreed
p1301
sI1322
Vimmediate
p1302
sI1323
Vindex
p1303
sI1324
Vnine
p1304
sI1325
Vprovides
p1305
sI1326
Vcreated
p1306
sI1327
Vneck
p1307
sI1328
Vfile
p1308
sI1329
Vwatch
p1309
sI1330
Vtrip
p1310
sI1331
Vessential
p1311
sI1332
Vforced
p1312
sI1333
Vevent
p1313
sI1334
Vcells
p1314
sI1335
Vcampaign
p1315
sI1336
Vteacher
p1316
sI1337
Vexplained
p1317
sI1338
Vindicate
p1318
sI1339
Vsession
p1319
sI1340
Vlady
p1320
sI1341
Vfully
p1321
sI1342
Vrussian
p1322
sI1343
Vrecognized
p1323
sI1344
Vtwenty
p1324
sI1345
Vprovidence
p1325
sI1346
Vgray
p1326
sI1347
Vfeatures
p1327
sI1348
Voffer
p1328
sI1349
Vmaximum
p1329
sI1350
Veconomy
p1330
sI1351
Vstudied
p1331
sI1352
Vexpression
p1332
sI1353
Vdesire
p1333
sI1354
Vprocedure
p1334
sI1355
Vterm
p1335
sI1356
Vreduced
p1336
sI1357
Vsam
p1337
sI1358
Vatmosphere
p1338
sI1359
Vreality
p1339
sI1360
Vmentioned
p1340
sI1361
Vdifferences
p1341
sI1362
Vseparate
p1342
sI1363
Vcoffee
p1343
sI1364
Vtone
p1344
sI1365
Vliterary
p1345
sI1366
Vbeside
p1346
sI1367
Vtraditional
p1347
sI1368
Vfair
p1348
sI1369
Vsecret
p1349
sI1370
Venter
p1350
sI1371
V-
sI1372
Vfavor
p1351
sI1373
Vmission
p1352
sI1374
Vfast
p1353
sI1375
Vlooks
p1354
sI1376
Vpicked
p1355
sI1377
Vsmaller
p1356
sI1378
Vedge
p1357
sI1379
Vaddress
p1358
sI1380
Veditor
p1359
sI1381
Vanode
p1360
sI1382
Vlaid
p1361
sI1383
Velection
p1362
sI1384
Vbelieved
p1363
sI1385
Vrights
p1364
sI1386
Vmodel
p1365
sI1387
Vvocational
p1366
sI1388
Vt
sI1389
V100
p1367
sI1390
Vjudge
p1368
sI1391
Vtitle
p1369
sI1392
Vpermit
p1370
sI1393
Vresponse
p1371
sI1394
Vsolid
p1372
sI1395
Vfollows
p1373
sI1396
Vformed
p1374
sI1397
Vknife
p1375
sI1398
Vquiet
p1376
sI1399
Vnice
p1377
sI1400
Vb.
p1378
sI1401
Vp
sI1402
Vbuildings
p1379
sI1403
Vregion
p1380
sI1404
Vhearing
p1381
sI1405
Vwatching
p1382
sI1406
Vreceive
p1383
sI1407
Vbottle
p1384
sI1408
Vdifficulty
p1385
sI1409
Vpresence
p1386
sI1410
Vmemory
p1387
sI1411
Vtelephone
p1388
sI1412
Vfit
p1389
sI1413
Vjr.
p1390
sI1414
Vround
p1391
sI1415
Vvote
p1392
sI1416
Vturning
p1393
sI1417
Vofficial
p1394
sI1418
Vkilled
p1395
sI1419
Vvirginia
p1396
sI1420
Vcamp
p1397
sI1421
Vplanned
p1398
sI1422
Vexpressed
p1399
sI1423
Vdog
p1400
sI1424
Vrock
p1401
sI1425
Vpersonnel
p1402
sI1426
Vmurder
p1403
sI1427
Vjunior
p1404
sI1428
Vstayed
p1405
sI1429
Vfrance
p1406
sI1430
Vtreated
p1407
sI1431
Vremoved
p1408
sI1432
Vrich
p1409
sI1433
Vnovember
p1410
sI1434
Vframe
p1411
sI1435
Vnobody
p1412
sI1436
Vgain
p1413
sI1437
Vberlin
p1414
sI1438
Vinterior
p1415
sI1439
Vselected
p1416
sI1440
Vstandards
p1417
sI1441
Vfourth
p1418
sI1442
Vstore
p1419
sI1443
Vability
p1420
sI1444
Vincreasing
p1421
sI1445
Vpositive
p1422
sI1446
Vcontrast
p1423
sI1447
Vfailed
p1424
sI1448
Vjewish
p1425
sI1449
Vsend
p1426
sI1450
Vpointed
p1427
sI1451
Vfaculty
p1428
sI1452
Vtwice
p1429
sI1453
Vobserved
p1430
sI1454
Vclaims
p1431
sI1455
Vleader
p1432
sI1456
Vpulled
p1433
sI1457
Vindividuals
p1434
sI1458
Vdiscovered
p1435
sI1459
Vmembership
p1436
sI1460
Vnevertheless
p1437
sI1461
Vbrief
p1438
sI1462
Vwriters
p1439
sI1463
Vwriter
p1440
sI1464
Vlouis
p1441
sI1465
Vchapter
p1442
sI1466
Vadvantage
p1443
sI1467
Vrule
p1444
sI1468
Vpowers
p1445
sI1469
Vdie
p1446
sI1470
Vbrother
p1447
sI1471
Vvalley
p1448
sI1472
Vmaster
p1449
sI1473
Vwants
p1450
sI1474
Vresources
p1451
sI1475
Vsomehow
p1452
sI1476
Vdetail
p1453
sI1477
Vplatform
p1454
sI1478
Vhill
p1455
sI1479
Vvillage
p1456
sI1480
Vwine
p1457
sI1481
Vaccept
p1458
sI1482
Vallow
p1459
sI1483
Vcommand
p1460
sI1484
Vordinary
p1461
sI1485
Vevil
p1462
sI1486
Vbroke
p1463
sI1487
Vfields
p1464
sI1488
Vfighting
p1465
sI1489
Vrussia
p1466
sI1490
Vmorgan
p1467
sI1491
Vdaughter
p1468
sI1492
Vitems
p1469
sI1493
Vplus
p1470
sI1494
Vboat
p1471
sI1495
Vlegal
p1472
sI1496
Vfamiliar
p1473
sI1497
Vincreases
p1474
sI1498
Vphase
p1475
sI1499
Vupper
p1476
sI1500
Vassumed
p1477
sI1501
Vjones
p1478
sI1502
Veverybody
p1479
sI1503
Vsharp
p1480
sI1504
Vfaces
p1481
sI1505
Vcompared
p1482
sI1506
Vhistorical
p1483
sI1507
Vsmiled
p1484
sI1508
Vconstant
p1485
sI1509
Vfactor
p1486
sI1510
Vapril
p1487
sI1511
Vfig.
p1488
sI1512
Vresponsible
p1489
sI1513
Vprinciples
p1490
sI1514
Vforth
p1491
sI1515
Vdu
p1492
sI1516
Vmercer
p1493
sI1517
Vh.
p1494
sI1518
Vapproximately
p1495
sI1519
Vcolumn
p1496
sI1520
Vchosen
p1497
sI1521
Vproved
p1498
sI1522
Vunity
p1499
sI1523
Vuniverse
p1500
sI1524
Vbeauty
p1501
sI1525
Vrichard
p1502
sI1526
Vcarrying
p1503
sI1527
Veducational
p1504
sI1528
Vdogs
p1505
sI1529
Vdrawn
p1506
sI1530
Vbox
p1507
sI1531
Vcommunism
p1508
sI1532
Vindependence
p1509
sI1533
Vdust
p1510
sI1534
Vnaturally
p1511
sI1535
Vrevolution
p1512
sI1536
Vfoot
p1513
sI1537
Vrome
p1514
sI1538
Vshelter
p1515
sI1539
Vwalls
p1516
sI1540
Vbuy
p1517
sI1541
Vexchange
p1518
sI1542
Vsections
p1519
sI1543
Vsan
p1520
sI1544
Vindependent
p1521
sI1545
Vdanger
p1522
sI1546
Vwaited
p1523
sI1547
Vaircraft
p1524
sI1548
Vrain
p1525
sI1549
Vcalls
p1526
sI1550
Vsong
p1527
sI1551
Vchina
p1528
sI1552
Vconnection
p1529
sI1553
Vrealized
p1530
sI1554
Vrealize
p1531
sI1555
Vleague
p1532
sI1556
Vlips
p1533
sI1557
Vordered
p1534
sI1558
Vsettled
p1535
sI1559
Vsweet
p1536
sI1560
Vweather
p1537
sI1561
Vliberal
p1538
sI1562
Vlevels
p1539
sI1563
Vtexas
p1540
sI1564
Vteachers
p1541
sI1565
Vpolitics
p1542
sI1566
Vseek
p1543
sI1567
Vwilling
p1544
sI1568
Vancient
p1545
sI1569
Vcompleted
p1546
sI1570
Vfashion
p1547
sI1571
Vclean
p1548
sI1572
Vtraffic
p1549
sI1573
Vsigns
p1550
sI1574
Vprotection
p1551
sI1575
Velectronic
p1552
sI1576
Vpictures
p1553
sI1577
Vought
p1554
sI1578
Vapplication
p1555
sI1579
Vminimum
p1556
sI1580
Vexcellent
p1557
sI1581
Velectric
p1558
sI1582
Vleading
p1559
sI1583
Vactions
p1560
sI1584
Vanimal
p1561
sI1585
Vfamilies
p1562
sI1586
Varticle
p1563
sI1587
Vwon
p1564
sI1588
Vdrew
p1565
sI1589
Vstarting
p1566
sI1590
Vflow
p1567
sI1591
Vkhrushchev
p1568
sI1592
Vpolicies
p1569
sI1593
Vfrank
p1570
sI1594
Vfifty
p1571
sI1595
Vdry
p1572
sI1596
Vlargely
p1573
sI1597
Vcharacteristic
p1574
sI1598
Vstatements
p1575
sI1599
Vprojects
p1576
sI1600
Vappropriate
p1577
sI1601
Vmonday
p1578
sI1602
Vemotional
p1579
sI1603
Vinitial
p1580
sI1604
Vhorses
p1581
sI1605
Vpractical
p1582
sI1606
Vdirected
p1583
sI1607
Vbeat
p1584
sI1608
Vquick
p1585
sI1609
Vstands
p1586
sI1610
Vasking
p1587
sI1611
Vwonder
p1588
sI1612
Vsaturday
p1589
sI1613
Vflat
p1590
sI1614
Vlegs
p1591
sI1615
Vimpact
p1592
sI1616
Voccurred
p1593
sI1617
Vreference
p1594
sI1618
Vanswered
p1595
sI1619
Vestimated
p1596
sI1620
Vcommunication
p1597
sI1621
Vchairman
p1598
sI1622
Vjury
p1599
sI1623
Vends
p1600
sI1624
Vthick
p1601
sI1625
Vwarm
p1602
sI1626
Vpotential
p1603
sI1627
Vsit
p1604
sI1628
Vaside
p1605
sI1629
Vdress
p1606
sI1630
Vyourself
p1607
sI1631
Vcareer
p1608
sI1632
Vteaching
p1609
sI1633
Vbackground
p1610
sI1634
Vparis
p1611
sI1635
Vchair
p1612
sI1636
Vdeclared
p1613
sI1637
Vcapable
p1614
sI1638
Vhonor
p1615
sI1639
Vscore
p1616
sI1640
Vbirth
p1617
sI1641
Vrelief
p1618
sI1642
Vclosely
p1619
sI1643
Vintellectual
p1620
sI1644
Vsubstantial
p1621
sI1645
Varts
p1622
sI1646
Vgross
p1623
sI1647
Vsearch
p1624
sI1648
Vmeasured
p1625
sI1649
Vissues
p1626
sI1650
Vexperiments
p1627
sI1651
Vadequate
p1628
sI1652
Vpage
p1629
sI1653
Vemployees
p1630
sI1654
Vforest
p1631
sI1655
Vjuly
p1632
sI1656
Vgets
p1633
sI1657
Vfingers
p1634
sI1658
Vsignificance
p1635
sI1659
Vbesides
p1636
sI1660
Vproperties
p1637
sI1661
Vblock
p1638
sI1662
Vhanover
p1639
sI1663
Vplays
p1640
sI1664
Vourselves
p1641
sI1665
Vcutting
p1642
sI1666
Vhelped
p1643
sI1667
Vattorney
p1644
sI1668
Vphil
p1645
sI1669
Vnewspaper
p1646
sI1670
Vimagination
p1647
sI1671
Vhung
p1648
sI1672
Vdiscussed
p1649
sI1673
Vd.
p1650
sI1674
Vpassing
p1651
sI1675
Vescape
p1652
sI1676
Vdominant
p1653
sI1677
Vjoin
p1654
sI1678
Vsupposed
p1655
sI1679
Vobjects
p1656
sI1680
Vheadquarters
p1657
sI1681
Vobject
p1658
sI1682
Vjobs
p1659
sI1683
Vrapidly
p1660
sI1684
Vdesk
p1661
sI1685
Vwore
p1662
sI1686
Vholding
p1663
sI1687
Vtypical
p1664
sI1688
Vachievement
p1665
sI1689
Vcell
p1666
sI1690
Vcalifornia
p1667
sI1691
Vsleep
p1668
sI1692
Vreasonable
p1669
sI1693
Vgrew
p1670
sI1694
Vempty
p1671
sI1695
Vbodies
p1672
sI1696
Vprimarily
p1673
sI1697
Vtowards
p1674
sI1698
Vmaintenance
p1675
sI1699
Vlocated
p1676
sI1700
Vcontemporary
p1677
sI1701
Vlaos
p1678
sI1702
Vmatters
p1679
sI1703
Vspiritual
p1680
sI1704
Vaspects
p1681
sI1705
Vbelief
p1682
sI1706
Vsite
p1683
sI1707
Vmessage
p1684
sI1708
Vdream
p1685
sI1709
Vcredit
p1686
sI1710
Vexplain
p1687
sI1711
Vyards
p1688
sI1712
Vresolution
p1689
sI1713
Vbenefit
p1690
sI1714
Vno.
p1691
sI1715
Vtomorrow
p1692
sI1716
Vpowerful
p1693
sI1717
Vhighest
p1694
sI1718
Vdramatic
p1695
sI1719
Vcompetition
p1696
sI1720
Vrifle
p1697
sI1721
Vwind
p1698
sI1722
Vlocation
p1699
sI1723
Vjesus
p1700
sI1724
Vsignal
p1701
sI1725
Vexperiment
p1702
sI1726
Vparker
p1703
sI1727
Vassume
p1704
sI1728
Vgrow
p1705
sI1729
Vbroken
p1706
sI1730
Vnarrow
p1707
sI1731
Vp.m.
p1708
sI1732
Vargument
p1709
sI1733
Vcontact
p1710
sI1734
Vappeal
p1711
sI1735
Vhappen
p1712
sI1736
Vshop
p1713
sI1737
Vtom
p1714
sI1738
Vunusual
p1715
sI1739
Vfellow
p1716
sI1740
Vrelation
p1717
sI1741
Vdomestic
p1718
sI1742
Vkill
p1719
sI1743
Vsufficient
p1720
sI1744
Vbaby
p1721
sI1745
Vofficials
p1722
sI1746
Vlibrary
p1723
sI1747
Vguests
p1724
sI1748
Vsave
p1725
sI1749
Vspeaking
p1726
sI1750
Vrising
p1727
sI1751
V9
sI1752
Vfund
p1728
sI1753
Vrecognize
p1729
sI1754
Vdecember
p1730
sI1755
Vgreatly
p1731
sI1756
Vwilson
p1732
sI1757
Vbillion
p1733
sI1758
Vpleasure
p1734
sI1759
Vassignment
p1735
sI1760
Vm.
p1736
sI1761
Varrived
p1737
sI1762
Vreduce
p1738
sI1763
Vinternal
p1739
sI1764
Vsenate
p1740
sI1765
Vu.
p1741
sI1766
Vdrove
p1742
sI1767
Vequally
p1743
sI1768
V11
p1744
sI1769
Vcool
p1745
sI1770
Vcareful
p1746
sI1771
Vachieved
p1747
sI1772
Vagencies
p1748
sI1773
Vstruggle
p1749
sI1774
Vconcerning
p1750
sI1775
Vportion
p1751
sI1776
Vplease
p1752
sI1777
Vextreme
p1753
sI1778
Vhomes
p1754
sI1779
Vsets
p1755
sI1780
Vtravel
p1756
sI1781
Vcourses
p1757
sI1782
Vshowing
p1758
sI1783
Vfriendly
p1759
sI1784
Vshore
p1760
sI1785
Vpossibly
p1761
sI1786
Vimagine
p1762
sI1787
Vgreek
p1763
sI1788
Vprices
p1764
sI1789
Vtests
p1765
sI1790
Vvictory
p1766
sI1791
Vweapons
p1767
sI1792
Vassociated
p1768
sI1793
Vr.
p1769
sI1794
Veuropean
p1770
sI1795
Vbeach
p1771
sI1796
Vorganizations
p1772
sI1797
Vcommercial
p1773
sI1798
Vprocedures
p1774
sI1799
Veat
p1775
sI1800
Vvast
p1776
sI1801
Vcoast
p1777
sI1802
Vkid
p1778
sI1803
Vfeelings
p1779
sI1804
Vshoulder
p1780
sI1805
Vspeech
p1781
sI1806
V50
p1782
sI1807
Videal
p1783
sI1808
Vduty
p1784
sI1809
Vminister
p1785
sI1810
Vboston
p1786
sI1811
Vgovernments
p1787
sI1812
Vacting
p1788
sI1813
Vcontinuing
p1789
sI1814
Vsoft
p1790
sI1815
Vmetal
p1791
sI1816
Vcloser
p1792
sI1817
Vended
p1793
sI1818
Vstreets
p1794
sI1819
Vtask
p1795
sI1820
Vsetting
p1796
sI1821
Vcontract
p1797
sI1822
Vfriday
p1798
sI1823
Vmachinery
p1799
sI1824
Vrefused
p1800
sI1825
Vheavily
p1801
sI1826
Vkeeping
p1802
sI1827
Vgarden
p1803
sI1828
Vsomewhere
p1804
sI1829
Vmoon
p1805
sI1830
Vgoal
p1806
sI1831
Vchemical
p1807
sI1832
Vnose
p1808
sI1833
Vstared
p1809
sI1834
Varmed
p1810
sI1835
Vcontained
p1811
sI1836
Vorchestra
p1812
sI1837
Vonto
p1813
sI1838
Vslow
p1814
sI1839
Vexisting
p1815
sI1840
Vlearning
p1816
sI1841
Vcircle
p1817
sI1842
Vmaintain
p1818
sI1843
Vtechnique
p1819
sI1844
Vscale
p1820
sI1845
Vtext
p1821
sI1846
Vfat
p1822
sI1847
Vstruck
p1823
sI1848
Vsongs
p1824
sI1849
Vdrop
p1825
sI1850
Vheaded
p1826
sI1851
Vsexual
p1827
sI1852
Vtaste
p1828
sI1853
Vnovel
p1829
sI1854
Vconclusion
p1830
sI1855
Vbudget
p1831
sI1856
Vexist
p1832
sI1857
Vparties
p1833
sI1858
Vhousing
p1834
sI1859
Vf.
p1835
sI1860
Vuses
p1836
sI1861
Vproviding
p1837
sI1862
Vsolution
p1838
sI1863
Vthirty
p1839
sI1864
Vtension
p1840
sI1865
Vtree
p1841
sI1866
Vpainting
p1842
sI1867
Vstories
p1843
sI1868
Vmine
p1844
sI1869
Vadvance
p1845
sI1870
Vbible
p1846
sI1871
Vrepeated
p1847
sI1872
Vultimate
p1848
sI1873
Vsnow
p1849
sI1874
Vnegroes
p1850
sI1875
Vplants
p1851
sI1876
Vroof
p1852
sI1877
Vformula
p1853
sI1878
Vnotice
p1854
sI1879
Vsensitive
p1855
sI1880
Vlie
p1856
sI1881
Vjudgment
p1857
sI1882
Vfinds
p1858
sI1883
Vcauses
p1859
sI1884
Vperfect
p1860
sI1885
Vsafe
p1861
sI1886
Vculture
p1862
sI1887
Vtuesday
p1863
sI1888
Vlose
p1864
sI1889
Vpreviously
p1865
sI1890
Vtalked
p1866
sI1891
Voccasion
p1867
sI1892
Vsomebody
p1868
sI1893
Vetc.
p1869
sI1894
Vhence
p1870
sI1895
Vgrounds
p1871
sI1896
Vfairly
p1872
sI1897
Vunique
p1873
sI1898
Vleg
p1874
sI1899
Vavoid
p1875
sI1900
Vliked
p1876
sI1901
Vestablish
p1877
sI1902
Vemphasis
p1878
sI1903
Vp.
p1879
sI1904
Vpale
p1880
sI1905
Vorders
p1881
sI1906
Vremove
p1882
sI1907
Vexercise
p1883
sI1908
Vminor
p1884
sI1909
Vwondered
p1885
sI1910
Vroman
p1886
sI1911
Vhole
p1887
sI1912
Vbusy
p1888
sI1913
Vcommerce
p1889
sI1914
Vstone
p1890
sI1915
Vsmile
p1891
sI1916
Vsurprised
p1892
sI1917
Vanimals
p1893
sI1918
Vroads
p1894
sI1919
Vindia
p1895
sI1920
Vunderstood
p1896
sI1921
Vuseful
p1897
sI1922
Vrailroad
p1898
sI1923
Vcritical
p1899
sI1924
Vneighborhood
p1900
sI1925
Vdallas
p1901
sI1926
Vsky
p1902
sI1927
Vdetails
p1903
sI1928
Vlewis
p1904
sI1929
Vcombination
p1905
sI1930
Vreplied
p1906
sI1931
Vprofessor
p1907
sI1932
Vapparent
p1908
sI1933
Vspot
p1909
sI1934
Ventrance
p1910
sI1935
Vcompletion
p1911
sI1936
Vrequires
p1912
sI1937
Vcongo
p1913
sI1938
Vapart
p1914
sI1939
Venjoyed
p1915
sI1940
Vbecoming
p1916
sI1941
Vtruly
p1917
sI1942
Vinformed
p1918
sI1943
Vprocesses
p1919
sI1944
Vshook
p1920
sI1945
Vgoods
p1921
sI1946
Vpermitted
p1922
sI1947
Vtruck
p1923
sI1948
Vartist
p1924
sI1949
Vbeneath
p1925
sI1950
Vflowers
p1926
sI1951
Vcharged
p1927
sI1952
Vsample
p1928
sI1953
Vbay
p1929
sI1954
Vbear
p1930
sI1955
Vappearance
p1931
sI1956
Valive
p1932
sI1957
Vuncle
p1933
sI1958
Vbaseball
p1934
sI1959
Vbirds
p1935
sI1960
Vmajority
p1936
sI1961
Vnotes
p1937
sI1962
Vdictionary
p1938
sI1963
Vafraid
p1939
sI1964
Vacademic
p1940
sI1965
Vhat
p1941
sI1966
Vvision
p1942
sI1967
Vfifteen
p1943
sI1968
Vconfidence
p1944
sI1969
Vevident
p1945
sI1970
Vwage
p1946
sI1971
Vintensity
p1947
sI1972
Vspite
p1948
sI1973
Vvital
p1949
sI1974
Vgranted
p1950
sI1975
Vbought
p1951
sI1976
Vorganized
p1952
sI1977
Vchinese
p1953
sI1978
Vpure
p1954
sI1979
Vregarded
p1955
sI1980
Vl.
p1956
sI1981
Vwheel
p1957
sI1982
Vseptember
p1958
sI1983
Vjoined
p1959
sI1984
Vguess
p1960
sI1985
V14
p1961
sI1986
Vrepresented
p1962
sI1987
Ventitled
p1963
sI1988
Vdraw
p1964
sI1989
Vsoldiers
p1965
sI1990
Vminds
p1966
sI1991
Vloved
p1967
sI1992
Vreview
p1968
sI1993
Vdouble
p1969
sI1994
Vpalmer
p1970
sI1995
Vmotor
p1971
sI1996
Vapply
p1972
sI1997
Vagency
p1973
sI1998
Vwild
p1974
sI1999
Vminute
p1975
sI2000
Vhuge
p1976
sI2001
Videntity
p1977
sI2002
Vruns
p1978
sI2003
Vsought
p1979
sI2004
Vbegins
p1980
sI2005
Vextended
p1981
sI2006
Vjoe
p1982
sI2007
Vyellow
p1983
sI2008
Vtheme
p1984
sI2009
Vpick
p1985
sI2010
Vdemands
p1986
sI2011
Vfirms
p1987
sI2012
Vinner
p1988
sI2013
Vfort
p1989
sI2014
Vconduct
p1990
sI2015
Vcross
p1991
sI2016
Vrooms
p1992
sI2017
Vjoseph
p1993
sI2018
Vproperly
p1994
sI2019
Vwin
p1995
sI2020
Vitem
p1996
sI2021
Vtall
p1997
sI2022
Vsounds
p1998
sI2023
V18
p1999
sI2024
Vconducted
p2000
sI2025
Vplenty
p2001
sI2026
Vgames
p2002
sI2027
Vcultural
p2003
sI2028
Vwagon
p2004
sI2029
Vpublication
p2005
sI2030
Vdivided
p2006
sI2031
Vimproved
p2007
sI2032
Vdevice
p2008
sI2033
Vmarine
p2009
sI2034
Vworry
p2010
sI2035
Vmartin
p2011
sI2036
Vartists
p2012
sI2037
Vexecutive
p2013
sI2038
Vmotion
p2014
sI2039
Vwood
p2015
sI2040
Vcomponents
p2016
sI2041
Vbritain
p2017
sI2042
Vgeneration
p2018
sI2043
Vwished
p2019
sI2044
Vmeasurements
p2020
sI2045
Vmachines
p2021
sI2046
Vpositions
p2022
sI2047
Vdear
p2023
sI2048
Vseat
p2024
sI2049
Vattend
p2025
sI2050
Vrepublican
p2026
sI2051
Vdescription
p2027
sI2052
Vdecisions
p2028
sI2053
Vsoil
p2029
sI2054
Vcreate
p2030
sI2055
Vputting
p2031
sI2056
Vunable
p2032
sI2057
Vsupported
p2033
sI2058
Vpreparation
p2034
sI2059
Vwalking
p2035
sI2060
Vsuggest
p2036
sI2061
Vsmith
p2037
sI2062
Vtrained
p2038
sI2063
Vrural
p2039
sI2064
V16
p2040
sI2065
Vthoughts
p2041
sI2066
Vjews
p2042
sI2067
Vforget
p2043
sI2068
Vlake
p2044
sI2069
Vrisk
p2045
sI2070
Vphone
p2046
sI2071
Vinterpretation
p2047
sI2072
Vfaced
p2048
sI2073
Vsymbol
p2049
sI2074
Vcrowd
p2050
sI2075
Vwet
p2051
sI2076
Vassigned
p2052
sI2077
Vaugust
p2053
sI2078
Vpayment
p2054
sI2079
Vdisease
p2055
sI2080
Vgrass
p2056
sI2081
Vversion
p2057
sI2082
Vlargest
p2058
sI2083
Vbreath
p2059
sI2084
Vchest
p2060
sI2085
Vpractices
p2061
sI2086
Vbreakfast
p2062
sI2087
Vpushed
p2063
sI2088
Vdepth
p2064
sI2089
Vtroops
p2065
sI2090
Vspend
p2066
sI2091
Vexamples
p2067
sI2092
Vslight
p2068
sI2093
Vwelfare
p2069
sI2094
Vhandle
p2070
sI2095
Vnegative
p2071
sI2096
Vband
p2072
sI2097
Vprove
p2073
sI2098
Vjanuary
p2074
sI2099
Vabsence
p2075
sI2100
Vloose
p2076
sI2101
Vexperienced
p2077
sI2102
Vexperiences
p2078
sI2103
Vwonderful
p2079
sI2104
Vhudson
p2080
sI2105
Vadministrative
p2081
sI2106
Vfinding
p2082
sI2107
Vsin
p2083
sI2108
Vbitter
p2084
sI2109
Vremarks
p2085
sI2110
Vpractically
p2086
sI2111
Vjapanese
p2087
sI2112
Vcontent
p2088
sI2113
Vvehicles
p2089
sI2114
Vdriving
p2090
sI2115
Vadvanced
p2091
sI2116
Vwindows
p2092
sI2117
Vpercent
p2093
sI2118
Vdozen
p2094
sI2119
Vsilence
p2095
sI2120
Vtelling
p2096
sI2121
Vintroduced
p2097
sI2122
Vcolors
p2098
sI2123
Vdetailed
p2099
sI2124
Vdeveloping
p2100
sI2125
Vtheater
p2101
sI2126
Vu.n.
p2102
sI2127
Valfred
p2103
sI2128
Vla
p2104
sI2129
Vraise
p2105
sI2130
Vgold
p2106
sI2131
Velement
p2107
sI2132
Vflesh
p2108
sI2133
Vconflict
p2109
sI2134
Vadvice
p2110
sI2135
Vtrust
p2111
sI2136
Vhero
p2112
sI2137
Vcenters
p2113
sI2138
Vindian
p2114
sI2139
Vestablishment
p2115
sI2140
Vbedroom
p2116
sI2141
Veventually
p2117
sI2142
Vcorrect
p2118
sI2143
Vcharacteristics
p2119
sI2144
Vcontrary
p2120
sI2145
Vdetective
p2121
sI2146
Vwidely
p2122
sI2147
Vpull
p2123
sI2148
Vguy
p2124
sI2149
Vconventional
p2125
sI2150
Vachieve
p2126
sI2151
Vfoods
p2127
sI2152
Vcousin
p2128
sI2153
Velections
p2129
sI2154
Vthroat
p2130
sI2155
Vestate
p2131
sI2156
Vsituations
p2132
sI2157
Vpapers
p2133
sI2158
Vlisten
p2134
sI2159
Vagree
p2135
sI2160
Vdavid
p2136
sI2161
Vboats
p2137
sI2162
Vstages
p2138
sI2163
Vrear
p2139
sI2164
Vabroad
p2140
sI2165
Vapproval
p2141
sI2166
Vsurprise
p2142
sI2167
Vnodded
p2143
sI2168
Vbegun
p2144
sI2169
Varthur
p2145
sI2170
Vgradually
p2146
sI2171
Veasier
p2147
sI2172
Vinvestigation
p2148
sI2173
Voctober
p2149
sI2174
Vwaves
p2150
sI2175
Vwarren
p2151
sI2176
Vplayer
p2152
sI2177
Vuniform
p2153
sI2178
Vlos
p2154
sI2179
Vprotestant
p2155
sI2180
Vnecessarily
p2156
sI2181
Vshoulders
p2157
sI2182
Vangle
p2158
sI2183
Vdevoted
p2159
sI2184
Vviews
p2160
sI2185
Vages
p2161
sI2186
Vsupreme
p2162
sI2187
Vlaughed
p2163
sI2188
Vstream
p2164
sI2189
Vopportunities
p2165
sI2190
Vsick
p2166
sI2191
Vwooden
p2167
sI2192
Vextra
p2168
sI2193
Vassembly
p2169
sI2194
Vchain
p2170
sI2195
Vconviction
p2171
sI2196
Vadvertising
p2172
sI2197
Vtiny
p2173
sI2198
Vfemale
p2174
sI2199
Vexpense
p2175
sI2200
Vproud
p2176
sI2201
Vautomobile
p2177
sI2202
Vmotors
p2178
sI2203
Vtowns
p2179
sI2204
Vmoments
p2180
sI2205
Vhills
p2181
sI2206
Vnoticed
p2182
sI2207
Vtaught
p2183
sI2208
Vpair
p2184
sI2209
Vworse
p2185
sI2210
Vissued
p2186
sI2211
Vdesired
p2187
sI2212
Vstrike
p2188
sI2213
Veisenhower
p2189
sI2214
Vbrilliant
p2190
sI2215
Vfundamental
p2191
sI2216
Vknowing
p2192
sI2217
Vd
sI2218
Vwelcome
p2193
sI2219
Vtelevision
p2194
sI2220
Vcourts
p2195
sI2221
Vfill
p2196
sI2222
Vextremely
p2197
sI2223
Vchildhood
p2198
sI2224
Vengine
p2199
sI2225
Vlatin
p2200
sI2226
Vphiladelphia
p2201
sI2227
Vmassachusetts
p2202
sI2228
Vefficiency
p2203
sI2229
Vinstitute
p2204
sI2230
Vmention
p2205
sI2231
Vconversation
p2206
sI2232
Vconvinced
p2207
sI2233
Vchoose
p2208
sI2234
Vrequest
p2209
sI2235
Vspeaker
p2210
sI2236
Vpayments
p2211
sI2237
Vleaves
p2212
sI2238
Vpassage
p2213
sI2239
Vimpressive
p2214
sI2240
Vtragedy
p2215
sI2241
Vincident
p2216
sI2242
Vacceptance
p2217
sI2243
Vcount
p2218
sI2244
Vdepends
p2219
sI2245
Vsilent
p2220
sI2246
Voperator
p2221
sI2247
Vpartly
p2222
sI2248
Vtill
p2223
sI2249
Vconstitution
p2224
sI2250
Vmillions
p2225
sI2251
Vmeasures
p2226
sI2252
Vtendency
p2227
sI2253
Vfirmly
p2228
sI2254
V13
p2229
sI2255
Vsports
p2230
sI2256
Vholy
p2231
sI2257
Vcreative
p2232
sI2258
Vburning
p2233
sI2259
Vdriver
p2234
sI2260
Vconsideration
p2235
sI2261
Vride
p2236
sI2262
Vemployed
p2237
sI2263
Vmilk
p2238
sI2264
Vquietly
p2239
sI2265
Vhopes
p2240
sI2266
Vtwelve
p2241
sI2267
Vgrand
p2242
sI2268
Vfunctions
p2243
sI2269
Vsorry
p2244
sI2270
Voperate
p2245
sI2271
Vroyal
p2246
sI2272
Voccasionally
p2247
sI2273
Vhearst
p2248
sI2274
Vco.
p2249
sI2275
Vmantle
p2250
sI2276
Vanger
p2251
sI2277
Vmissile
p2252
sI2278
Vlimit
p2253
sI2279
Vpink
p2254
sI2280
Vintegration
p2255
sI2281
Vdrinking
p2256
sI2282
Vscreen
p2257
sI2283
Vcry
p2258
sI2284
Vconcrete
p2259
sI2285
Vformal
p2260
sI2286
Vsuit
p2261
sI2287
Vpersonality
p2262
sI2288
V1957
p2263
sI2289
Vprecisely
p2264
sI2290
Vdestroy
p2265
sI2291
V24
p2266
sI2292
Vswung
p2267
sI2293
Vresistance
p2268
sI2294
Vtired
p2269
sI2295
Vrolled
p2270
sI2296
Vvia
p2271
sI2297
Vcomparison
p2272
sI2298
Vpoem
p2273
sI2299
Vmile
p2274
sI2300
Vmaintained
p2275
sI2301
Vhoped
p2276
sI2302
Vplain
p2277
sI2303
Vguard
p2278
sI2304
Vshooting
p2279
sI2305
Vcharlie
p2280
sI2306
Vliquid
p2281
sI2307
Vattitudes
p2282
sI2308
Vintelligence
p2283
sI2309
Vengaged
p2284
sI2310
Vprior
p2285
sI2311
Vpatterns
p2286
sI2312
Vblind
p2287
sI2313
Vring
p2288
sI2314
Vsafety
p2289
sI2315
Vgrant
p2290
sI2316
Vfears
p2291
sI2317
Veverywhere
p2292
sI2318
Vboards
p2293
sI2319
Vlincoln
p2294
sI2320
Vconsidering
p2295
sI2321
Vperiods
p2296
sI2322
Vsupplies
p2297
sI2323
Vcongregation
p2298
sI2324
Vsold
p2299
sI2325
Vunknown
p2300
sI2326
Vemployment
p2301
sI2327
Vmanufacturers
p2302
sI2328
Vvacation
p2303
sI2329
Vsurely
p2304
sI2330
Vangeles
p2305
sI2331
Vmail
p2306
sI2332
Vexpansion
p2307
sI2333
Vluck
p2308
sI2334
Vskin
p2309
sI2335
Vessentially
p2310
sI2336
Vopera
p2311
sI2337
Vmodels
p2312
sI2338
Vrepresentative
p2313
sI2339
Vbonds
p2314
sI2340
Vdenied
p2315
sI2341
Vnorthern
p2316
sI2342
Vmoscow
p2317
sI2343
V21
p2318
sI2344
Vitalian
p2319
sI2345
Vexpenses
p2320
sI2346
Vcook
p2321
sI2347
Vnumerous
p2322
sI2348
Vbills
p2323
sI2349
Vinstrument
p2324
sI2350
Vstairs
p2325
sI2351
Vcuba
p2326
sI2352
Vmere
p2327
sI2353
Vhumor
p2328
sI2354
Vprovision
p2329
sI2355
Vhonest
p2330
sI2356
Vtestimony
p2331
sI2357
Vconcentration
p2332
sI2358
Vsinging
p2333
sI2359
Vlights
p2334
sI2360
Vpurchase
p2335
sI2361
Vwearing
p2336
sI2362
Vsoul
p2337
sI2363
Vmovements
p2338
sI2364
Vaspect
p2339
sI2365
Vremarkable
p2340
sI2366
V23
p2341
sI2367
Vdeny
p2342
sI2368
Vthousands
p2343
sI2369
Vencourage
p2344
sI2370
Vconscious
p2345
sI2371
Vseriously
p2346
sI2372
Vwright
p2347
sI2373
Vshares
p2348
sI2374
Vdifficulties
p2349
sI2375
Vwave
p2350
sI2376
Vliberty
p2351
sI2377
Vfiction
p2352
sI2378
Vtrend
p2353
sI2379
Vfought
p2354
sI2380
Vavenue
p2355
sI2381
Vflight
p2356
sI2382
Vprecision
p2357
sI2383
Vsuperior
p2358
sI2384
Vpanels
p2359
sI2385
V60
p2360
sI2386
Vcreation
p2361
sI2387
Vanyway
p2362
sI2388
Vchamber
p2363
sI2389
Vinsurance
p2364
sI2390
Vatomic
p2365
sI2391
Vengineering
p2366
sI2392
Vrecommended
p2367
sI2393
Vpocket
p2368
sI2394
Vcurious
p2369
sI2395
Vdecade
p2370
sI2396
Vaward
p2371
sI2397
Vlosses
p2372
sI2398
V1954
p2373
sI2399
Vequivalent
p2374
sI2400
Vrelative
p2375
sI2401
Vdollar
p2376
sI2402
V22
p2377
sI2403
Vgeorgia
p2378
sI2404
Vartery
p2379
sI2405
Vsalt
p2380
sI2406
Vbond
p2381
sI2407
Vloan
p2382
sI2408
Vshut
p2383
sI2409
Vauthor
p2384
sI2410
Vlegislation
p2385
sI2411
Vcenturies
p2386
sI2412
Velectrical
p2387
sI2413
Vweakness
p2388
sI2414
Vthrew
p2389
sI2415
Vdoctrine
p2390
sI2416
Vq
sI2417
Vviolence
p2391
sI2418
Vnative
p2392
sI2419
Videntified
p2393
sI2420
Vdangerous
p2394
sI2421
Vpercentage
p2395
sI2422
Vopposition
p2396
sI2423
Vballet
p2397
sI2424
Vintended
p2398
sI2425
Vriding
p2399
sI2426
Vtaxes
p2400
sI2427
Vadopted
p2401
sI2428
Vfeels
p2402
sI2429
Vuniversal
p2403
sI2430
Vafrica
p2404
sI2431
Vcup
p2405
sI2432
Vapproached
p2406
sI2433
Vdiscovery
p2407
sI2434
Vcast
p2408
sI2435
Vsum
p2409
sI2436
Vpromise
p2410
sI2437
Vsteel
p2411
sI2438
Vresidential
p2412
sI2439
Vdiameter
p2413
sI2440
Vwatson
p2414
sI2441
Vmold
p2415
sI2442
Vsheet
p2416
sI2443
Vreferred
p2417
sI2444
Vlucy
p2418
sI2445
Vinterference
p2419
sI2446
Vcontaining
p2420
sI2447
Vice
p2421
sI2448
Vmedium
p2422
sI2449
Vincludes
p2423
sI2450
Vcurve
p2424
sI2451
Vbrain
p2425
sI2452
Vangry
p2426
sI2453
Vexpenditures
p2427
sI2454
Velsewhere
p2428
sI2455
Vpromised
p2429
sI2456
Vmounted
p2430
sI2457
Vvaluable
p2431
sI2458
Valexander
p2432
sI2459
Vmeat
p2433
sI2460
Vdepend
p2434
sI2461
Voffices
p2435
sI2462
Voffers
p2436
sI2463
Vpennsylvania
p2437
sI2464
Vprime
p2438
sI2465
Vload
p2439
sI2466
Vedward
p2440
sI2467
Vtarget
p2441
sI2468
Vnearby
p2442
sI2469
Vcharges
p2443
sI2470
Vfebruary
p2444
sI2471
Vterrible
p2445
sI2472
Vimpression
p2446
sI2473
Vcontain
p2447
sI2474
Vqualities
p2448
sI2475
Vcalling
p2449
sI2476
Verrors
p2450
sI2477
Vclimbed
p2451
sI2478
Vaccomplished
p2452
sI2479
Vconsiderably
p2453
sI2480
Vsnake
p2454
sI2481
Vrecognition
p2455
sI2482
Vhans
p2456
sI2483
Vamounts
p2457
sI2484
Vlovely
p2458
sI2485
Vshoes
p2459
sI2486
Varranged
p2460
sI2487
Vwashing
p2461
sI2488
Vexpensive
p2462
sI2489
Vadmitted
p2463
sI2490
Vpilot
p2464
sI2491
Vlisted
p2465
sI2492
Vwisdom
p2466
sI2493
Vopinions
p2467
sI2494
Vmanchester
p2468
sI2495
Vfired
p2469
sI2496
Vmostly
p2470
sI2497
Vpounds
p2471
sI2498
Vanswers
p2472
sI2499
Vdevelopments
p2473
sI2500
Vcontinuous
p2474
sI2501
Vseeking
p2475
sI2502
Vmama
p2476
sI2503
Vfun
p2477
sI2504
Vacres
p2478
sI2505
Venjoy
p2479
sI2506
Vhundreds
p2480
sI2507
Vpath
p2481
sI2508
Vconfusion
p2482
sI2509
Vorigin
p2483
sI2510
Vchanging
p2484
sI2511
Vwarning
p2485
sI2512
Vadam
p2486
sI2513
Vspirits
p2487
sI2514
Vsuffering
p2488
sI2515
Vcontribute
p2489
sI2516
Vthickness
p2490
sI2517
Vcollected
p2491
sI2518
Vconfused
p2492
sI2519
Vtables
p2493
sI2520
Vhelping
p2494
sI2521
Vvolumes
p2495
sI2522
Vsale
p2496
sI2523
Vodd
p2497
sI2524
Voxygen
p2498
sI2525
Vslaves
p2499
sI2526
Vmobile
p2500
sI2527
Vburden
p2501
sI2528
Vasia
p2502
sI2529
Vlies
p2503
sI2530
Vagent
p2504
sI2531
Vextensive
p2505
sI2532
Vyounger
p2506
sI2533
Vdriven
p2507
sI2534
Vbrush
p2508
sI2535
Vtechnology
p2509
sI2536
Vinvestment
p2510
sI2537
Vseparated
p2511
sI2538
Voccur
p2512
sI2539
Vpace
p2513
sI2540
Vtend
p2514
sI2541
Vreaching
p2515
sI2542
Vconsists
p2516
sI2543
Vflying
p2517
sI2544
Vdealing
p2518
sI2545
Vtour
p2519
sI2546
Vexplanation
p2520
sI2547
Vconcerns
p2521
sI2548
Videntification
p2522
sI2549
Vrepublic
p2523
sI2550
Vbelieves
p2524
sI2551
Vheads
p2525
sI2552
Vrecorded
p2526
sI2553
Vdirt
p2527
sI2554
Vsalary
p2528
sI2555
Vroute
p2529
sI2556
Vtransportation
p2530
sI2557
Vlawyer
p2531
sI2558
Vcoat
p2532
sI2559
Vliquor
p2533
sI2560
Vcore
p2534
sI2561
Vmountains
p2535
sI2562
Vships
p2536
sI2563
Vrapid
p2537
sI2564
Vresulting
p2538
sI2565
Vwarfare
p2539
sI2566
Vlifted
p2540
sI2567
Vreader
p2541
sI2568
Vreadily
p2542
sI2569
Vrecreation
p2543
sI2570
Vinsisted
p2544
sI2571
Venvironment
p2545
sI2572
Vcloth
p2546
sI2573
Vi.e.
p2547
sI2574
Vbureau
p2548
sI2575
Vsaved
p2549
sI2576
Viron
p2550
sI2577
Vmarketing
p2551
sI2578
Vwhenever
p2552
sI2579
Vexternal
p2553
sI2580
Vheaven
p2554
sI2581
Vdarkness
p2555
sI2582
Vemotions
p2556
sI2583
Vgrown
p2557
sI2584
Vswitch
p2558
sI2585
Vmental
p2559
sI2586
Vdancing
p2560
sI2587
Vdrama
p2561
sI2588
Vraw
p2562
sI2589
Vcatch
p2563
sI2590
Vcomfort
p2564
sI2591
Vporch
p2565
sI2592
Vgolden
p2566
sI2593
Vlots
p2567
sI2594
Vreactions
p2568
sI2595
Vexcess
p2569
sI2596
Vappointed
p2570
sI2597
Vincreasingly
p2571
sI2598
Vrachel
p2572
sI2599
Vadams
p2573
sI2600
Vexpress
p2574
sI2601
Vvaried
p2575
sI2602
Vholds
p2576
sI2603
Vhardy
p2577
sI2604
Vregional
p2578
sI2605
Vparticles
p2579
sI2606
Vseeds
p2580
sI2607
Vsmooth
p2581
sI2608
Vurban
p2582
sI2609
Veditorial
p2583
sI2610
Vreflected
p2584
sI2611
Vcivilization
p2585
sI2612
Vg.
p2586
sI2613
Vdistinguished
p2587
sI2614
Vwages
p2588
sI2615
Vcomment
p2589
sI2616
Vweapon
p2590
sI2617
Vhate
p2591
sI2618
Vpride
p2592
sI2619
Vpossibilities
p2593
sI2620
Vguns
p2594
sI2621
Vobtain
p2595
sI2622
Vanybody
p2596
sI2623
Vlinda
p2597
sI2624
Vbound
p2598
sI2625
Vthrow
p2599
sI2626
Vcrossed
p2600
sI2627
Vjournal
p2601
sI2628
Vsuffered
p2602
sI2629
Vlong-range
p2603
sI2630
Vreplaced
p2604
sI2631
Vmuscle
p2605
sI2632
Vengineer
p2606
sI2633
Vcooling
p2607
sI2634
Vunlike
p2608
sI2635
Vnineteenth
p2609
sI2636
Vtouched
p2610
sI2637
Vdemanded
p2611
sI2638
Vease
p2612
sI2639
Vprison
p2613
sI2640
Vwire
p2614
sI2641
Vsufficiently
p2615
sI2642
Vskill
p2616
sI2643
Vanxiety
p2617
sI2644
Vbag
p2618
sI2645
Vdistinct
p2619
sI2646
Vvarying
p2620
sI2647
Vwaters
p2621
sI2648
Vexists
p2622
sI2649
Vreply
p2623
sI2650
Vthreat
p2624
sI2651
Vreduction
p2625
sI2652
Vanne
p2626
sI2653
Vopposed
p2627
sI2654
Vsell
p2628
sI2655
Vtissue
p2629
sI2656
Vparticipation
p2630
sI2657
Vo'clock
p2631
sI2658
Vlimits
p2632
sI2659
Vdisplay
p2633
sI2660
Vsake
p2634
sI2661
Vrepresentatives
p2635
sI2662
Vrestaurant
p2636
sI2663
Vmusicians
p2637
sI2664
Vpike
p2638
sI2665
Vrare
p2639
sI2666
Vhenrietta
p2640
sI2667
Vfunny
p2641
sI2668
Vdistinction
p2642
sI2669
Vfrancisco
p2643
sI2670
Vsmoke
p2644
sI2671
Vrarely
p2645
sI2672
V'em
p2646
sI2673
Vdescribe
p2647
sI2674
Vstorage
p2648
sI2675
Vvice
p2649
sI2676
Vpleased
p2650
sI2677
Vremoval
p2651
sI2678
Vfed
p2652
sI2679
Vsocieties
p2653
sI2680
Vpsychological
p2654
sI2681
Vconstantly
p2655
sI2682
Vsteady
p2656
sI2683
Vwrites
p2657
sI2684
Vbrothers
p2658
sI2685
Vcarl
p2659
sI2686
Vremaining
p2660
sI2687
Vkate
p2661
sI2688
Vcomparable
p2662
sI2689
Vseed
p2663
sI2690
Vshift
p2664
sI2691
V17
p2665
sI2692
Vassumption
p2666
sI2693
Vvisited
p2667
sI2694
Vproposal
p2668
sI2695
Vmatch
p2669
sI2696
Vwhereas
p2670
sI2697
Vcommunities
p2671
sI2698
Vfavorite
p2672
sI2699
Vvirtually
p2673
sI2700
Vspending
p2674
sI2701
Vcontinues
p2675
sI2702
Vinvolves
p2676
sI2703
Vbread
p2677
sI2704
Vrough
p2678
sI2705
Vteach
p2679
sI2706
Vdowntown
p2680
sI2707
Vqueen
p2681
sI2708
Varc
p2682
sI2709
Vinstitution
p2683
sI2710
Vorleans
p2684
sI2711
Vdesegregation
p2685
sI2712
Vimprovement
p2686
sI2713
Vatlantic
p2687
sI2714
Veleven
p2688
sI2715
Vrode
p2689
sI2716
Vindicates
p2690
sI2717
Vshared
p2691
sI2718
Vdecide
p2692
sI2719
Ve
sI2720
Vpresumably
p2693
sI2721
Vdean
p2694
sI2722
Vbob
p2695
sI2723
Vtreasury
p2696
sI2724
Vtalent
p2697
sI2725
Vcomposed
p2698
sI2726
Vhappens
p2699
sI2727
Vparallel
p2700
sI2728
Vthoroughly
p2701
sI2729
Vlanguages
p2702
sI2730
Vjoy
p2703
sI2731
Vlaboratory
p2704
sI2732
Vafford
p2705
sI2733
Vvisual
p2706
sI2734
Vcombined
p2707
sI2735
Vmissed
p2708
sI2736
Vhighway
p2709
sI2737
Vgrace
p2710
sI2738
Vlegislative
p2711
sI2739
Vstudying
p2712
sI2740
Vglance
p2713
sI2741
Vnotion
p2714
sI2742
Vguidance
p2715
sI2743
Vfinger
p2716
sI2744
Vconscience
p2717
sI2745
Vprominent
p2718
sI2746
Vexception
p2719
sI2747
Vregions
p2720
sI2748
Vtool
p2721
sI2749
Vregarding
p2722
sI2750
Vsenator
p2723
sI2751
Vthrown
p2724
sI2752
Vdemocrats
p2725
sI2753
Vpainted
p2726
sI2754
Vatoms
p2727
sI2755
Vcriticism
p2728
sI2756
Vshouted
p2729
sI2757
Vhandsome
p2730
sI2758
Vnecessity
p2731
sI2759
Vdrawing
p2732
sI2760
Vobservations
p2733
sI2761
Vgoals
p2734
sI2762
Vpersonally
p2735
sI2763
Vwinston
p2736
sI2764
Vburned
p2737
sI2765
V40
p2738
sI2766
Vautomatic
p2739
sI2767
Vexisted
p2740
sI2768
Vfocus
p2741
sI2769
Vcustomers
p2742
sI2770
Vbrings
p2743
sI2771
Vstranger
p2744
sI2772
Vdependent
p2745
sI2773
Vshear
p2746
sI2774
Vdiscover
p2747
sI2775
Vapproved
p2748
sI2776
Vwalter
p2749
sI2777
Va.m.
p2750
sI2778
Vpapa
p2751
sI2779
Vstepped
p2752
sI2780
Vpermanent
p2753
sI2781
Vpope
p2754
sI2782
Vneighbors
p2755
sI2783
Vbars
p2756
sI2784
Vintense
p2757
sI2785
Vproof
p2758
sI2786
Villinois
p2759
sI2787
Vestimate
p2760
sI2788
Vsatisfactory
p2761
sI2789
Vself
p2762
sI2790
Vemergency
p2763
sI2791
Vmaturity
p2764
sI2792
Vcomedy
p2765
sI2793
Vcooperation
p2766
sI2794
Vfurthermore
p2767
sI2795
Vcontrolled
p2768
sI2796
Vmagazine
p2769
sI2797
Vcommunists
p2770
sI2798
Vsleeping
p2771
sI2799
Vcolleges
p2772
sI2800
Vrecall
p2773
sI2801
Vacts
p2774
sI2802
Vmystery
p2775
sI2803
Vjoint
p2776
sI2804
Vguest
p2777
sI2805
Vintroduction
p2778
sI2806
Vprovisions
p2779
sI2807
Vrepresents
p2780
sI2808
Vassured
p2781
sI2809
Vagents
p2782
sI2810
Vdefined
p2783
sI2811
Vcode
p2784
sI2812
Vgained
p2785
sI2813
Vstriking
p2786
sI2814
Vconcert
p2787
sI2815
Vfinish
p2788
sI2816
Vsoldier
p2789
sI2817
Vallotment
p2790
sI2818
Vmississippi
p2791
sI2819
Vauthorities
p2792
sI2820
Vimprove
p2793
sI2821
Vhydrogen
p2794
sI2822
Vdeeply
p2795
sI2823
Vtransfer
p2796
sI2824
Vrevealed
p2797
sI2825
Vtv
p2798
sI2826
Vrayburn
p2799
sI2827
Vlegislature
p2800
sI2828
Vholes
p2801
sI2829
Vtrials
p2802
sI2830
Vforever
p2803
sI2831
Vsevere
p2804
sI2832
Vlistening
p2805
sI2833
Vneutral
p2806
sI2834
Vmankind
p2807
sI2835
Vfurniture
p2808
sI2836
Vanywhere
p2809
sI2837
Vinch
p2810
sI2838
Vattractive
p2811
sI2839
Vcontributed
p2812
sI2840
Vobjectives
p2813
sI2841
Vderived
p2814
sI2842
Vdetermination
p2815
sI2843
Vmad
p2816
sI2844
Vselection
p2817
sI2845
Vdestroyed
p2818
sI2846
Vlawrence
p2819
sI2847
Vstick
p2820
sI2848
Vbringing
p2821
sI2849
Vdefinition
p2822
sI2850
Vtonight
p2823
sI2851
Vohio
p2824
sI2852
Vturns
p2825
sI2853
Vregardless
p2826
sI2854
Vserving
p2827
sI2855
Vforgotten
p2828
sI2856
Vexperimental
p2829
sI2857
Vdestruction
p2830
sI2858
Vpalace
p2831
sI2859
Vears
p2832
sI2860
Vsudden
p2833
sI2861
Vrobinson
p2834
sI2862
Vsacred
p2835
sI2863
Varrangements
p2836
sI2864
Vn
sI2865
Vclouds
p2837
sI2866
Vorganic
p2838
sI2867
Vaxis
p2839
sI2868
Vspecifically
p2840
sI2869
Vsharply
p2841
sI2870
Vsister
p2842
sI2871
Vmayor
p2843
sI2872
Vreception
p2844
sI2873
Vinevitably
p2845
sI2874
Vprocessing
p2846
sI2875
Vcotton
p2847
sI2876
Vrepresent
p2848
sI2877
Vpleasant
p2849
sI2878
Vonset
p2850
sI2879
Vinstant
p2851
sI2880
Vrandom
p2852
sI2881
Vprimitive
p2853
sI2882
Vdistricts
p2854
sI2883
Vr
sI2884
Vscheduled
p2855
sI2885
Vfoundation
p2856
sI2886
Vpressures
p2857
sI2887
Vjapan
p2858
sI2888
Vcontains
p2859
sI2889
Vfifth
p2860
sI2890
Vcorresponding
p2861
sI2891
Vconsumer
p2862
sI2892
V31
p2863
sI2893
Vagricultural
p2864
sI2894
Vexperts
p2865
sI2895
Vcopy
p2866
sI2896
Vaccounts
p2867
sI2897
Vbriefly
p2868
sI2898
Vglad
p2869
sI2899
Vpiano
p2870
sI2900
Vknees
p2871
sI2901
Vhandling
p2872
sI2902
Vtemple
p2873
sI2903
Vpaul
p2874
sI2904
Vrelationships
p2875
sI2905
Vsimultaneously
p2876
sI2906
Vthyroid
p2877
sI2907
Vnewspapers
p2878
sI2908
Vthompson
p2879
sI2909
Vleaned
p2880
sI2910
Vattempts
p2881
sI2911
V200
p2882
sI2912
Vhanded
p2883
sI2913
Vvoices
p2884
sI2914
Vtrack
p2885
sI2915
Vcandidates
p2886
sI2916
Vsupper
p2887
sI2917
Vspoken
p2888
sI2918
Vedges
p2889
sI2919
Vtested
p2890
sI2920
Vharbor
p2891
sI2921
Vsurvey
p2892
sI2922
Vswimming
p2893
sI2923
Villusion
p2894
sI2924
Vplot
p2895
sI2925
Vreserve
p2896
sI2926
Vthanks
p2897
sI2927
Vprofession
p2898
sI2928
Vauthorized
p2899
sI2929
Vfoam
p2900
sI2930
Vdistant
p2901
sI2931
Vdeeper
p2902
sI2932
Vimages
p2903
sI2933
Vstaining
p2904
sI2934
Vroy
p2905
sI2935
Vmood
p2906
sI2936
Vsusan
p2907
sI2937
Vchose
p2908
sI2938
Vhurt
p2909
sI2939
Vfail
p2910
sI2940
Vdefinite
p2911
sI2941
Vdrunk
p2912
sI2942
Vblocks
p2913
sI2943
Vedition
p2914
sI2944
Vstomach
p2915
sI2945
Vfool
p2916
sI2946
Vbelong
p2917
sI2947
Vpaint
p2918
sI2948
Veffectively
p2919
sI2949
Vcomfortable
p2920
sI2950
Vassure
p2921
sI2951
Vstrongly
p2922
sI2952
Vfeature
p2923
sI2953
Venormous
p2924
sI2954
Vinnocent
p2925
sI2955
Vresulted
p2926
sI2956
Vdevices
p2927
sI2957
Vreaders
p2928
sI2958
Vmagic
p2929
sI2959
Vholmes
p2930
sI2960
Vroberts
p2931
sI2961
Vaim
p2932
sI2962
Vspecies
p2933
sI2963
Vbanks
p2934
sI2964
Vdelivered
p2935
sI2965
Vcolonel
p2936
sI2966
Vadmit
p2937
sI2967
Vnavy
p2938
sI2968
Vserves
p2939
sI2969
Vmixed
p2940
sI2970
Vrelease
p2941
sI2971
Vpush
p2942
sI2972
Vmale
p2943
sI2973
Vatom
p2944
sI2974
Voccasional
p2945
sI2975
Villustrated
p2946
sI2976
Vaccompanied
p2947
sI2977
Vstronger
p2948
sI2978
Vquestionnaire
p2949
sI2979
Voutstanding
p2950
sI2980
Vcleaning
p2951
sI2981
Vsigned
p2952
sI2982
Vskills
p2953
sI2983
Vcontribution
p2954
sI2984
Vtremendous
p2955
sI2985
Vnoise
p2956
sI2986
Vgate
p2957
sI2987
Vformation
p2958
sI2988
Vconstructed
p2959
sI2989
Vchicken
p2960
sI2990
Vshadow
p2961
sI2991
Vvariable
p2962
sI2992
Vjim
p2963
sI2993
Vprinted
p2964
sI2994
Vdirty
p2965
sI2995
Vsmiling
p2966
sI2996
Vcolumns
p2967
sI2997
Vbeings
p2968
sI2998
Voutlook
p2969
sI2999
Vstored
p2970
sI3000
Vguide
p2971
sI3001
Vcamera
p2972
sI3002
Vcrew
p2973
sI3003
Vmaris
p2974
sI3004
Vsymbols
p2975
sI3005
Vdressed
p2976
sI3006
Vsupplied
p2977
sI3007
Vfootball
p2978
sI3008
Vcards
p2979
sI3009
Vcash
p2980
sI3010
Vlying
p2981
sI3011
Vkinds
p2982
sI3012
Verror
p2983
sI3013
Vbomb
p2984
sI3014
Vconclusions
p2985
sI3015
Vequipped
p2986
sI3016
Vaffected
p2987
sI3017
Vforty
p2988
sI3018
Vratio
p2989
sI3019
Vmoves
p2990
sI3020
Vhurry
p2991
sI3021
Vclassic
p2992
sI3022
Vindustries
p2993
sI3023
Vwise
p2994
sI3024
Vbaker
p2995
sI3025
Vfilling
p2996
sI3026
Vworship
p2997
sI3027
Vvisitors
p2998
sI3028
Vlicense
p2999
sI3029
Vpatients
p3000
sI3030
Vextension
p3001
sI3031
Vintention
p3002
sI3032
Vsubstantially
p3003
sI3033
Vdoors
p3004
sI3034
Vassistant
p3005
sI3035
Vscientists
p3006
sI3036
Vchallenge
p3007
sI3037
Vaccuracy
p3008
sI3038
Vdesirable
p3009
sI3039
Vpaintings
p3010
sI3040
Vpeter
p3011
sI3041
Vsees
p3012
sI3042
Vmanaged
p3013
sI3043
Vjackson
p3014
sI3044
Vf
sI3045
Vnormally
p3015
sI3046
Vsympathy
p3016
sI3047
Vpeoples
p3017
sI3048
Vsimilarly
p3018
sI3049
Vspanish
p3019
sI3050
Vscholarship
p3020
sI3051
Vschedule
p3021
sI3052
Vsatisfied
p3022
sI3053
Vfellowship
p3023
sI3054
Vbinomial
p3024
sI3055
Vautomatically
p3025
sI3056
Vcoating
p3026
sI3057
Vthank
p3027
sI3058
Voccupied
p3028
sI3059
Vvisiting
p3029
sI3060
Vtough
p3030
sI3061
Vhost
p3031
sI3062
Vcharacters
p3032
sI3063
Vattended
p3033
sI3064
Vmultiple
p3034
sI3065
Vwednesday
p3035
sI3066
Vinstalled
p3036
sI3067
Vtape
p3037
sI3068
Vyard
p3038
sI3069
Voutput
p3039
sI3070
Vproducing
p3040
sI3071
Vphenomenon
p3041
sI3072
Vclark
p3042
sI3073
Veggs
p3043
sI3074
Vpresently
p3044
sI3075
Vwear
p3045
sI3076
Vstores
p3046
sI3077
Vrow
p3047
sI3078
Vsciences
p3048
sI3079
Vmatsuo
p3049
sI3080
Vinstructions
p3050
sI3081
Vpreserve
p3051
sI3082
Vbombs
p3052
sI3083
Vnationalism
p3053
sI3084
Vatlanta
p3054
sI3085
Vpatent
p3055
sI3086
Vfruit
p3056
sI3087
Vmeets
p3057
sI3088
Vprepare
p3058
sI3089
Vprobability
p3059
sI3090
Vmeanwhile
p3060
sI3091
Vconsequences
p3061
sI3092
Vaccurate
p3062
sI3093
Vaffect
p3063
sI3094
Vsympathetic
p3064
sI3095
Vpat
p3065
sI3096
Vlatest
p3066
sI3097
Vbench
p3067
sI3098
Vwashed
p3068
sI3099
Vbeer
p3069
sI3100
Vcrime
p3070
sI3101
Vlumber
p3071
sI3102
Vmyth
p3072
sI3103
Vurged
p3073
sI3104
Vworried
p3074
sI3105
Vharry
p3075
sI3106
Vowners
p3076
sI3107
Vcounties
p3077
sI3108
Vcalculated
p3078
sI3109
Vsounded
p3079
sI3110
Vtongue
p3080
sI3111
Vheight
p3081
sI3112
Vdignity
p3082
sI3113
Vreturning
p3083
sI3114
Vfish
p3084
sI3115
V1962
p3085
sI3116
Vdisappeared
p3086
sI3117
Vvirgin
p3087
sI3118
Vrevenue
p3088
sI3119
Vpont
p3089
sI3120
Vover-all
p3090
sI3121
Vcontext
p3091
sI3122
Vperformed
p3092
sI3123
Vjane
p3093
sI3124
Vsad
p3094
sI3125
Vknee
p3095
sI3126
Vjumped
p3096
sI3127
Vwaste
p3097
sI3128
Vvehicle
p3098
sI3129
Vcalm
p3099
sI3130
Vgrade
p3100
sI3131
Vyield
p3101
sI3132
Vroutine
p3102
sI3133
Vclaimed
p3103
sI3134
Visolated
p3104
sI3135
Vsymbolic
p3105
sI3136
Vstanley
p3106
sI3137
Vretired
p3107
sI3138
Vadjustment
p3108
sI3139
Vsequence
p3109
sI3140
Vroll
p3110
sI3141
Vquarter
p3111
sI3142
Vemotion
p3112
sI3143
Vdivine
p3113
sI3144
Vpencil
p3114
sI3145
Vreasonably
p3115
sI3146
Vsending
p3116
sI3147
Vphrase
p3117
sI3148
Vlists
p3118
sI3149
Vtells
p3119
sI3150
Vfrequent
p3120
sI3151
Valternative
p3121
sI3152
Vsept.
p3122
sI3153
Vshortly
p3123
sI3154
Vocean
p3124
sI3155
Vfallen
p3125
sI3156
Vfolk
p3126
sI3157
Vreporters
p3127
sI3158
Vvary
p3128
sI3159
Vreturns
p3129
sI3160
Vdecades
p3130
sI3161
Vlee
p3131
sI3162
Vbent
p3132
sI3163
Vowned
p3133
sI3164
Vreceiving
p3134
sI3165
Vseldom
p3135
sI3166
Vnet
p3136
sI3167
Vmetropolitan
p3137
sI3168
Vcrazy
p3138
sI3169
Vraising
p3139
sI3170
Vbus
p3140
sI3171
Vvisible
p3141
sI3172
Vswept
p3142
sI3173
Vprotect
p3143
sI3174
Vcorn
p3144
sI3175
Vworst
p3145
sI3176
Vbigger
p3146
sI3177
Vtends
p3147
sI3178
Vitaly
p3148
sI3179
Vlogical
p3149
sI3180
Vthereby
p3150
sI3181
Vmeasurement
p3151
sI3182
Vgolf
p3152
sI3183
Vsing
p3153
sI3184
Vexposed
p3154
sI3185
Vpresidential
p3155
sI3186
Vmechanical
p3156
sI3187
Vduties
p3157
sI3188
Vblame
p3158
sI3189
Varrangement
p3159
sI3190
Vsuitable
p3160
sI3191
Vsugar
p3161
sI3192
Vsuggestion
p3162
sI3193
Vjohnson
p3163
sI3194
Vcanada
p3164
sI3195
Vopenly
p3165
sI3196
Vbadly
p3166
sI3197
Vroles
p3167
sI3198
Vsmell
p3168
sI3199
Vfindings
p3169
sI3200
Vtears
p3170
sI3201
Vdispute
p3171
sI3202
Vhunting
p3172
sI3203
Vcurrently
p3173
sI3204
Vtools
p3174
sI3205
Vtied
p3175
sI3206
Vgenuine
p3176
sI3207
Vmistake
p3177
sI3208
Vabstract
p3178
sI3209
Vdying
p3179
sI3210
Vsamuel
p3180
sI3211
Vfinancing
p3181
sI3212
Vharvard
p3182
sI3213
Vsentence
p3183
sI3214
Vcandidate
p3184
sI3215
Vclerk
p3185
sI3216
Vstretched
p3186
sI3217
Vkeys
p3187
sI3218
Vfacing
p3188
sI3219
Vrealistic
p3189
sI3220
Vsenior
p3190
sI3221
Vchlorine
p3191
sI3222
Vrice
p3192
sI3223
Vfewer
p3193
sI3224
Vguilt
p3194
sI3225
Vburst
p3195
sI3226
Vjess
p3196
sI3227
Vthermal
p3197
sI3228
Vmissing
p3198
sI3229
Vdetermining
p3199
sI3230
Vcampus
p3200
sI3231
Vdemonstrated
p3201
sI3232
Vsurvive
p3202
sI3233
Vjacket
p3203
sI3234
Vadvised
p3204
sI3235
Vlunch
p3205
sI3236
Vexamine
p3206
sI3237
Vclassical
p3207
sI3238
Vrector
p3208
sI3239
Vpathology
p3209
sI3240
Vandy
p3210
sI3241
Vsucceeded
p3211
sI3242
Vattempted
p3212
sI3243
Vnaval
p3213
sI3244
Vprince
p3214
sI3245
Vcharter
p3215
sI3246
Vsubstance
p3216
sI3247
Vdamage
p3217
sI3248
Vwash
p3218
sI3249
Vdrill
p3219
sI3250
Vowner
p3220
sI3251
Vadjusted
p3221
sI3252
Vinevitable
p3222
sI3253
Vstems
p3223
sI3254
Vaffair
p3224
sI3255
Vparked
p3225
sI3256
Vfate
p3226
sI3257
Vgrave
p3227
sI3258
Vfiled
p3228
sI3259
Vgift
p3229
sI3260
Vstrictly
p3230
sI3261
Vpresentation
p3231
sI3262
Vequation
p3232
sI3263
Vsymphony
p3233
sI3264
Valert
p3234
sI3265
Vadmission
p3235
sI3266
Vinterview
p3236
sI3267
Vslavery
p3237
sI3268
Vinvolving
p3238
sI3269
Vtragic
p3239
sI3270
Velected
p3240
sI3271
Vscheme
p3241
sI3272
Vbone
p3242
sI3273
Vmatching
p3243
sI3274
Vsuffer
p3244
sI3275
Vleads
p3245
sI3276
Vhealthy
p3246
sI3277
Vunfortunately
p3247
sI3278
Vfarmers
p3248
sI3279
Vthursday
p3249
sI3280
Vnights
p3250
sI3281
Vswift
p3251
sI3282
Vaccident
p3252
sI3283
Vharmony
p3253
sI3284
Vfalling
p3254
sI3285
Vfuneral
p3255
sI3286
Vmassive
p3256
sI3287
Vartistic
p3257
sI3288
Vrejected
p3258
sI3289
Vnamely
p3259
sI3290
Vbride
p3260
sI3291
Vperformances
p3261
sI3292
Vpoland
p3262
sI3293
Vbranch
p3263
sI3294
Vconnected
p3264
sI3295
Vpresents
p3265
sI3296
Vfly
p3266
sI3297
Vprecise
p3267
sI3298
Vbenefits
p3268
sI3299
Vfavorable
p3269
sI3300
Vmountain
p3270
sI3301
Vbranches
p3271
sI3302
Vquantity
p3272
sI3303
Vviolent
p3273
sI3304
Vblow
p3274
sI3305
Vcatholics
p3275
sI3306
Vengineers
p3276
sI3307
Vcooking
p3277
sI3308
Vkids
p3278
sI3309
Velaborate
p3279
sI3310
Vsurvival
p3280
sI3311
Vso-called
p3281
sI3312
Vscotty
p3282
sI3313
Vstuff
p3283
sI3314
Vexcitement
p3284
sI3315
Vgardens
p3285
sI3316
Vdiscussions
p3286
sI3317
Vtransition
p3287
sI3318
Vsalvation
p3288
sI3319
Vawareness
p3289
sI3320
Vdepending
p3290
sI3321
Vcurt
p3291
sI3322
Vpartner
p3292
sI3323
Vwedding
p3293
sI3324
Vmud
p3294
sI3325
Vremarked
p3295
sI3326
Vskywave
p3296
sI3327
Vconcluded
p3297
sI3328
Vhousehold
p3298
sI3329
Vslipped
p3299
sI3330
Vlong-term
p3300
sI3331
Vindians
p3301
sI3332
Vtemporary
p3302
sI3333
Vreflection
p3303
sI3334
Vconception
p3304
sI3335
Vgorton
p3305
sI3336
Vgesture
p3306
sI3337
Vremote
p3307
sI3338
Vcoal
p3308
sI3339
Vcourage
p3309
sI3340
Vshouting
p3310
sI3341
Velectronics
p3311
sI3342
Vvariation
p3312
sI3343
Veffectiveness
p3313
sI3344
Vfalls
p3314
sI3345
Vchandler
p3315
sI3346
Vfishing
p3316
sI3347
Vmissiles
p3317
sI3348
Vmills
p3318
sI3349
Vcovering
p3319
sI3350
Vfarther
p3320
sI3351
Vcollective
p3321
sI3352
Vdamn
p3322
sI3353
Vlacking
p3323
sI3354
Vinitiative
p3324
sI3355
V19
p3325
sI3356
Vefficient
p3326
sI3357
Vromantic
p3327
sI3358
Vcrowded
p3328
sI3359
V26
p3329
sI3360
Vweak
p3330
sI3361
Vpromote
p3331
sI3362
Vvan
p3332
sI3363
Vinadequate
p3333
sI3364
Veastern
p3334
sI3365
Vcastro
p3335
sI3366
Vwilliams
p3336
sI3367
Vemission
p3337
sI3368
Vgathered
p3338
sI3369
Vtesting
p3339
sI3370
Vloans
p3340
sI3371
Vspots
p3341
sI3372
Vcircles
p3342
sI3373
Veating
p3343
sI3374
Vmuseum
p3344
sI3375
Vconfronted
p3345
sI3376
Vcovers
p3346
sI3377
Ve.g.
p3347
sI3378
Vharold
p3348
sI3379
Vfactory
p3349
sI3380
Vplastic
p3350
sI3381
Vnaked
p3351
sI3382
Vhoward
p3352
sI3383
Vuniversities
p3353
sI3384
Vdebate
p3354
sI3385
Vpoets
p3355
sI3386
Vextend
p3356
sI3387
Vdave
p3357
sI3388
Vtroubled
p3358
sI3389
Vknocked
p3359
sI3390
Vtossed
p3360
sI3391
Vfourteen
p3361
sI3392
Vjuniors
p3362
sI3393
Vgallery
p3363
sI3394
Vdensity
p3364
sI3395
Vmovies
p3365
sI3396
Vstrain
p3366
sI3397
Vevaluation
p3367
sI3398
Vextraordinary
p3368
sI3399
Vcomposer
p3369
sI3400
Vfrequencies
p3370
sI3401
Vfallout
p3371
sI3402
Vallowing
p3372
sI3403
Varticles
p3373
sI3404
Vreducing
p3374
sI3405
Vinvolve
p3375
sI3406
Vtube
p3376
sI3407
Vmature
p3377
sI3408
Vbird
p3378
sI3409
Vaccordingly
p3379
sI3410
Vmarkets
p3380
sI3411
Vconservative
p3381
sI3412
Vcolored
p3382
sI3413
Vlightly
p3383
sI3414
Vheading
p3384
sI3415
Vfinance
p3385
sI3416
Vinvariably
p3386
sI3417
Vsaline
p3387
sI3418
Vconsequently
p3388
sI3419
Vremark
p3389
sI3420
Vstudio
p3390
sI3421
Vceiling
p3391
sI3422
Venterprise
p3392
sI3423
Vbeef
p3393
sI3424
Vpacific
p3394
sI3425
Vcompetitive
p3395
sI3426
Vlocking
p3396
sI3427
V1952
p3397
sI3428
Vcounter
p3398
sI3429
Vgently
p3399
sI3430
Vwinning
p3400
sI3431
Vv.
p3401
sI3432
Vhorn
p3402
sI3433
Vplastics
p3403
sI3434
Vchecked
p3404
sI3435
Vruled
p3405
sI3436
Vselling
p3406
sI3437
Vouter
p3407
sI3438
Vperfectly
p3408
sI3439
Vsecondary
p3409
sI3440
Vrecording
p3410
sI3441
Vdancer
p3411
sI3442
Vletting
p3412
sI3443
Vhelps
p3413
sI3444
Vtrail
p3414
sI3445
Vpanel
p3415
sI3446
Vsuccessfully
p3416
sI3447
Vdecline
p3417
sI3448
Vrussians
p3418
sI3449
Vmainly
p3419
sI3450
Vfilms
p3420
sI3451
Vseventh
p3421
sI3452
Vstructures
p3422
sI3453
Vpages
p3423
sI3454
Vbarely
p3424
sI3455
Vrespectively
p3425
sI3456
Vdefeat
p3426
sI3457
Vconsiderations
p3427
sI3458
Vpoetic
p3428
sI3459
Vdancers
p3429
sI3460
Vbasement
p3430
sI3461
Vterritory
p3431
sI3462
Vkansas
p3432
sI3463
Vstarts
p3433
sI3464
Vending
p3434
sI3465
Vsoftly
p3435
sI3466
Vmaid
p3436
sI3467
Vprotected
p3437
sI3468
Vmuscles
p3438
sI3469
Vshock
p3439
sI3470
Vparking
p3440
sI3471
Vchristianity
p3441
sI3472
Videntical
p3442
sI3473
Vlocked
p3443
sI3474
Vabsolute
p3444
sI3475
Valtogether
p3445
sI3476
Vdeliberately
p3446
sI3477
Vsplit
p3447
sI3478
Vconcentrated
p3448
sI3479
Vsharpe
p3449
sI3480
Vlane
p3450
sI3481
Vera
p3451
sI3482
Vsovereign
p3452
sI3483
Vdartmouth
p3453
sI3484
Vfranklin
p3454
sI3485
Vreform
p3455
sI3486
Voccurrence
p3456
sI3487
Vcomplicated
p3457
sI3488
Vroot
p3458
sI3489
Vshakespeare
p3459
sI3490
Vsuspect
p3460
sI3491
Vgrinned
p3461
sI3492
Vsheets
p3462
sI3493
Vskilled
p3463
sI3494
Vexpert
p3464
sI3495
Vallies
p3465
sI3496
Valex
p3466
sI3497
Vdealers
p3467
sI3498
Vimpressed
p3468
sI3499
Vslave
p3469
sI3500
Vexcessive
p3470
sI3501
Vcarbon
p3471
sI3502
Vdimensions
p3472
sI3503
Vbuying
p3473
sI3504
Vsen.
p3474
sI3505
Vfelix
p3475
sI3506
Vblanket
p3476
sI3507
Vsecure
p3477
sI3508
Vcomments
p3478
sI3509
Vet
p3479
sI3510
Veddie
p3480
sI3511
Vwoodruff
p3481
sI3512
Vislands
p3482
sI3513
Vcuts
p3483
sI3514
Vdates
p3484
sI3515
Vmedicine
p3485
sI3516
Vencountered
p3486
sI3517
Vcitizen
p3487
sI3518
Vmixture
p3488
sI3519
Vpreceding
p3489
sI3520
Vdirections
p3490
sI3521
Vstable
p3491
sI3522
Vcried
p3492
sI3523
Vreplace
p3493
sI3524
Vworker
p3494
sI3525
Vvirtue
p3495
sI3526
Vjohnny
p3496
sI3527
Vmiriam
p3497
sI3528
Vlistened
p3498
sI3529
Vlouisiana
p3499
sI3530
Vvoting
p3500
sI3531
Vasleep
p3501
sI3532
Vunconscious
p3502
sI3533
Vstem
p3503
sI3534
Vmeal
p3504
sI3535
Vcrucial
p3505
sI3536
Vconsciousness
p3506
sI3537
Vdreams
p3507
sI3538
Vpropaganda
p3508
sI3539
Vsuspended
p3509
sI3540
Vstrip
p3510
sI3541
Vdoctors
p3511
sI3542
Vgay
p3512
sI3543
Vflux
p3513
sI3544
Vcontrols
p3514
sI3545
Vgraduate
p3515
sI3546
Vreveal
p3516
sI3547
Vconsequence
p3517
sI3548
Vassociations
p3518
sI3549
Vfrontier
p3519
sI3550
Vranging
p3520
sI3551
Vhoping
p3521
sI3552
Vnowhere
p3522
sI3553
Vnetwork
p3523
sI3554
Vsacrifice
p3524
sI3555
Vfence
p3525
sI3556
Vradical
p3526
sI3557
Vsponsored
p3527
sI3558
Vhistorian
p3528
sI3559
Vrepresenting
p3529
sI3560
Vsurprising
p3530
sI3561
Vmeasuring
p3531
sI3562
Vinstances
p3532
sI3563
Vwidespread
p3533
sI3564
Vpurely
p3534
sI3565
Vmodest
p3535
sI3566
Vtrips
p3536
sI3567
Vsang
p3537
sI3568
Vtestament
p3538
sI3569
Vbelt
p3539
sI3570
Vpressed
p3540
sI3571
Vglasses
p3541
sI3572
Vvigorous
p3542
sI3573
Vfalse
p3543
sI3574
Vrecovery
p3544
sI3575
Vtransferred
p3545
sI3576
Vexciting
p3546
sI3577
Vstars
p3547
sI3578
Vquestioned
p3548
sI3579
Vconstitute
p3549
sI3580
Vproposals
p3550
sI3581
Vallied
p3551
sI3582
Vbuilder
p3552
sI3583
Vlieutenant
p3553
sI3584
Vsuggests
p3554
sI3585
Vexamination
p3555
sI3586
Vsilver
p3556
sI3587
Vmorality
p3557
sI3588
Vmighty
p3558
sI3589
Vcommonly
p3559
sI3590
Vanxious
p3560
sI3591
Vcow
p3561
sI3592
Vproportion
p3562
sI3593
Vprecious
p3563
sI3594
Vethical
p3564
sI3595
Vsuburban
p3565
sI3596
Vshots
p3566
sI3597
Vo.
p3567
sI3598
Vapplying
p3568
sI3599
Vtea
p3569
sI3600
Velectron
p3570
sI3601
Vhelpful
p3571
sI3602
Vthreatened
p3572
sI3603
Vargue
p3573
sI3604
Vtasks
p3574
sI3605
Vmerit
p3575
sI3606
Vjet
p3576
sI3607
Vmorse
p3577
sI3608
Vshorts
p3578
sI3609
Vcarleton
p3579
sI3610
Valbert
p3580
sI3611
Vscenes
p3581
sI3612
Vperform
p3582
sI3613
Vmickey
p3583
sI3614
Vutility
p3584
sI3615
Vregulations
p3585
sI3616
Vecumenical
p3586
sI3617
Vear
p3587
sI3618
Vbronchial
p3588
sI3619
Vjurisdiction
p3589
sI3620
Vdelight
p3590
sI3621
Vperception
p3591
sI3622
Vlesson
p3592
sI3623
Vsewage
p3593
sI3624
Ventertainment
p3594
sI3625
Veternal
p3595
sI3626
Vsolutions
p3596
sI3627
Vguilty
p3597
sI3628
Vsubsequent
p3598
sI3629
Vfees
p3599
sI3630
Vprestige
p3600
sI3631
Vcreating
p3601
sI3632
Vshapes
p3602
sI3633
Vdrying
p3603
sI3634
Vann
p3604
sI3635
Vsherman
p3605
sI3636
Vresidence
p3606
sI3637
Vbrooklyn
p3607
sI3638
Vmovie
p3608
sI3639
Vsignals
p3609
sI3640
Vapparatus
p3610
sI3641
Vvolunteers
p3611
sI3642
Vpoured
p3612
sI3643
Vextending
p3613
sI3644
Vpetitioner
p3614
sI3645
Vmagnitude
p3615
sI3646
Vbare
p3616
sI3647
Vbrannon
p3617
sI3648
Vargued
p3618
sI3649
Vtheatre
p3619
sI3650
Vdivorce
p3620
sI3651
Vfurnish
p3621
sI3652
Vfabrics
p3622
sI3653
Vplayers
p3623
sI3654
Vrepublicans
p3624
sI3655
Vlighted
p3625
sI3656
Vignored
p3626
sI3657
Vencouraged
p3627
sI3658
Vreminded
p3628
sI3659
Vsamples
p3629
sI3660
Vsons
p3630
sI3661
Vbarn
p3631
sI3662
Vunions
p3632
sI3663
Vcontributions
p3633
sI3664
Vhanging
p3634
sI3665
Vsensitivity
p3635
sI3666
Vhal
p3636
sI3667
Vmunicipal
p3637
sI3668
Vn.
p3638
sI3669
Vsand
p3639
sI3670
Vwitness
p3640
sI3671
Vsergeant
p3641
sI3672
Vpassion
p3642
sI3673
Vtons
p3643
sI3674
Vprayer
p3644
sI3675
Vadvantages
p3645
sI3676
Vverse
p3646
sI3677
Vinnocence
p3647
sI3678
Vexamined
p3648
sI3679
Vlimitations
p3649
sI3680
Vjourney
p3650
sI3681
Vhappening
p3651
sI3682
Vsovereignty
p3652
sI3683
Venthusiasm
p3653
sI3684
Vramey
p3654
sI3685
Vnewly
p3655
sI3686
Vcure
p3656
sI3687
Vclosing
p3657
sI3688
Vsurfaces
p3658
sI3689
Vprize
p3659
sI3690
Vharris
p3660
sI3691
Vcolony
p3661
sI3692
Vsanta
p3662
sI3693
Vdesigns
p3663
sI3694
Vmechanism
p3664
sI3695
Vgentleman
p3665
sI3696
Vpolynomial
p3666
sI3697
Vquarters
p3667
sI3698
Voct.
p3668
sI3699
Vcloud
p3669
sI3700
Vdawn
p3670
sI3701
Vformerly
p3671
sI3702
Vmarks
p3672
sI3703
Vcalendar
p3673
sI3704
Vspecified
p3674
sI3705
Vroosevelt
p3675
sI3706
Vcompare
p3676
sI3707
Vhated
p3677
sI3708
Vlaugh
p3678
sI3709
Vrendered
p3679
sI3710
Vencounter
p3680
sI3711
Vwound
p3681
sI3712
Vhumanity
p3682
sI3713
Vbullet
p3683
sI3714
Vprofit
p3684
sI3715
Vconvention
p3685
sI3716
Vdiplomatic
p3686
sI3717
Vdining
p3687
sI3718
Varise
p3688
sI3719
Vpromptly
p3689
sI3720
Vmines
p3690
sI3721
Vdemonstrate
p3691
sI3722
Vclarity
p3692
sI3723
Vmeetings
p3693
sI3724
Vlosing
p3694
sI3725
Voptimal
p3695
sI3726
Vtight
p3696
sI3727
Vappointment
p3697
sI3728
Vupstairs
p3698
sI3729
Vfreight
p3699
sI3730
Virish
p3700
sI3731
Vwarmth
p3701
sI3732
Vabsent
p3702
sI3733
Vexcuse
p3703
sI3734
V1955
p3704
sI3735
V1956
p3705
sI3736
Vstained
p3706
sI3737
Vcommander
p3707
sI3738
Vworthy
p3708
sI3739
Vgathering
p3709
sI3740
Vconsistent
p3710
sI3741
Vsoutheast
p3711
sI3742
Vdrugs
p3712
sI3743
Vdried
p3713
sI3744
Vpot
p3714
sI3745
Vsatisfaction
p3715
sI3746
Vladies
p3716
sI3747
Vshade
p3717
sI3748
Vfled
p3718
sI3749
Vtalents
p3719
sI3750
Vmaintaining
p3720
sI3751
Vpound
p3721
sI3752
Vcommunications
p3722
sI3753
Vpaused
p3723
sI3754
Vdiscuss
p3724
sI3755
Vcommitted
p3725
sI3756
Vfolklore
p3726
sI3757
Vyankees
p3727
sI3758
Vpowder
p3728
sI3759
Vpeculiar
p3729
sI3760
Voffering
p3730
sI3761
Vafrican
p3731
sI3762
Vlaughing
p3732
sI3763
Vresponses
p3733
sI3764
Vtextile
p3734
sI3765
Vexclusive
p3735
sI3766
Vexpanding
p3736
sI3767
Vlibraries
p3737
sI3768
Vdiscipline
p3738
sI3769
Vmarshall
p3739
sI3770
Vexact
p3740
sI3771
Vimagined
p3741
sI3772
Vroots
p3742
sI3773
Voccurs
p3743
sI3774
Vcustomer
p3744
sI3775
Vfestival
p3745
sI3776
Vbuilders
p3746
sI3777
Vgermans
p3747
sI3778
Vplacing
p3748
sI3779
Voperated
p3749
sI3780
Vaids
p3750
sI3781
Vobservation
p3751
sI3782
Vweekend
p3752
sI3783
Voutdoor
p3753
sI3784
Vabsolutely
p3754
sI3785
Vreputation
p3755
sI3786
Vutterly
p3756
sI3787
Vacquire
p3757
sI3788
Vrushed
p3758
sI3789
Vprevented
p3759
sI3790
Vt.
p3760
sI3791
Vpursuant
p3761
sI3792
Vinsist
p3762
sI3793
Vdelicate
p3763
sI3794
Vshirt
p3764
sI3795
Vrequirement
p3765
sI3796
Vconceived
p3766
sI3797
Vwherever
p3767
sI3798
Vjefferson
p3768
sI3799
Vsurplus
p3769
sI3800
Vmarriages
p3770
sI3801
Vdavis
p3771
sI3802
Vrestrictions
p3772
sI3803
Vpermits
p3773
sI3804
Vsupporting
p3774
sI3805
Vveteran
p3775
sI3806
Vshayne
p3776
sI3807
Vinjury
p3777
sI3808
Vupward
p3778
sI3809
Vfrozen
p3779
sI3810
Vseconds
p3780
sI3811
Vscattered
p3781
sI3812
Vpermission
p3782
sI3813
Vpublicly
p3783
sI3814
Vchristmas
p3784
sI3815
Vholder
p3785
sI3816
Vhughes
p3786
sI3817
Vprofound
p3787
sI3818
Vcombat
p3788
sI3819
Vpulmonary
p3789
sI3820
Venemies
p3790
sI3821
Vtheological
p3791
sI3822
Vconcepts
p3792
sI3823
Vscope
p3793
sI3824
Vsuspicion
p3794
sI3825
Vrefer
p3795
sI3826
Veager
p3796
sI3827
Vgentle
p3797
sI3828
Vpistol
p3798
sI3829
Vcap
p3799
sI3830
Vreorganization
p3800
sI3831
Vwings
p3801
sI3832
Vminimal
p3802
sI3833
Vdull
p3803
sI3834
Vsuite
p3804
sI3835
Vdelaware
p3805
sI3836
Vbutter
p3806
sI3837
Vshoot
p3807
sI3838
Voral
p3808
sI3839
Vdistributed
p3809
sI3840
Vprevention
p3810
sI3841
Vmirror
p3811
sI3842
Vreserved
p3812
sI3843
Vjulia
p3813
sI3844
Vgreenwich
p3814
sI3845
Vranch
p3815
sI3846
Vmyra
p3816
sI3847
Vv
sI3848
Vfriendship
p3817
sI3849
Vpublicity
p3818
sI3850
Vflew
p3819
sI3851
Vprefer
p3820
sI3852
Vclayton
p3821
sI3853
Vapproaching
p3822
sI3854
Vliterally
p3823
sI3855
Vvoted
p3824
sI3856
Vconsisting
p3825
sI3857
Vvictim
p3826
sI3858
Vhorizon
p3827
sI3859
Vclinical
p3828
sI3860
Vjudgments
p3829
sI3861
Vours
p3830
sI3862
Vslept
p3831
sI3863
Vshopping
p3832
sI3864
Vcady
p3833
sI3865
Vmagnificent
p3834
sI3866
Vdan
p3835
sI3867
Vdefine
p3836
sI3868
Vscholars
p3837
sI3869
Vsurrounding
p3838
sI3870
Vnewport
p3839
sI3871
Vfred
p3840
sI3872
Vfiber
p3841
sI3873
Vpasses
p3842
sI3874
Vgrain
p3843
sI3875
Vcontroversy
p3844
sI3876
Vdisturbed
p3845
sI3877
Vlively
p3846
sI3878
Vintelligent
p3847
sI3879
Vstaring
p3848
sI3880
Vrepeat
p3849
sI3881
Vsarah
p3850
sI3882
Vappreciate
p3851
sI3883
Vclimate
p3852
sI3884
Vhang
p3853
sI3885
Vsixth
p3854
sI3886
Vmarginal
p3855
sI3887
Vjohnnie
p3856
sI3888
Vgreg
p3857
sI3889
Vpart-time
p3858
sI3890
Vwidow
p3859
sI3891
Vliberals
p3860
sI3892
Vexceptions
p3861
sI3893
Vsubmarine
p3862
sI3894
Vlanding
p3863
sI3895
Vassist
p3864
sI3896
Vcharm
p3865
sI3897
Vplanes
p3866
sI3898
Vcellar
p3867
sI3899
Vtrembling
p3868
sI3900
Vbath
p3869
sI3901
Vinstruments
p3870
sI3902
Vstorm
p3871
sI3903
Velectricity
p3872
sI3904
Vdisaster
p3873
sI3905
Vthreatening
p3874
sI3906
Vjustify
p3875
sI3907
Vstockholders
p3876
sI3908
Vmeals
p3877
sI3909
Vdelightful
p3878
sI3910
Vzen
p3879
sI3911
Vconcerts
p3880
sI3912
Vpromotion
p3881
sI3913
Vpointing
p3882
sI3914
Vmitchell
p3883
sI3915
Videntify
p3884
sI3916
Vfrightened
p3885
sI3917
Vgyro
p3886
sI3918
Vcents
p3887
sI3919
Varlene
p3888
sI3920
Vurethane
p3889
sI3921
Vpaying
p3890
sI3922
Vinherent
p3891
sI3923
Vinstruction
p3892
sI3924
Vrevenues
p3893
sI3925
Ventry
p3894
sI3926
Vestablishing
p3895
sI3927
Vlegend
p3896
sI3928
Vregister
p3897
sI3929
Vjew
p3898
sI3930
Vinvited
p3899
sI3931
V1953
p3900
sI3932
Vcard
p3901
sI3933
Vmysterious
p3902
sI3934
Vrecalled
p3903
sI3935
Vretirement
p3904
sI3936
Vvelocity
p3905
sI3937
Vdesperate
p3906
sI3938
Vphenomena
p3907
sI3939
Vwars
p3908
sI3940
Vmarshal
p3909
sI3941
Vtangent
p3910
sI3942
Vemerged
p3911
sI3943
Vsophisticated
p3912
sI3944
V27
p3913
sI3945
Vunhappy
p3914
sI3946
Vframes
p3915
sI3947
Veileen
p3916
sI3948
Vhandled
p3917
sI3949
Vreleased
p3918
sI3950
Vaesthetic
p3919
sI3951
Voutcome
p3920
sI3952
Vmount
p3921
sI3953
Vanti-trust
p3922
sI3954
Vtraders
p3923
sI3955
Vbilly
p3924
sI3956
Vacquired
p3925
sI3957
Vpalfrey
p3926
sI3958
Vmutual
p3927
sI3959
Vtemperatures
p3928
sI3960
Vsnakes
p3929
sI3961
Vo
sI3962
Vstretch
p3930
sI3963
Vkingdom
p3931
sI3964
Vsettlement
p3932
sI3965
Vpreferred
p3933
sI3966
Vill
p3934
sI3967
Vquoted
p3935
sI3968
Vswitches
p3936
sI3969
Vvariables
p3937
sI3970
Vpremier
p3938
sI3971
Vsoutherners
p3939
sI3972
Vbears
p3940
sI3973
Vbeard
p3941
sI3974
Vtreat
p3942
sI3975
Vcavalry
p3943
sI3976
Vcontest
p3944
sI3977
Vovercome
p3945
sI3978
Vcritics
p3946
sI3979
Vcoolidge
p3947
sI3980
Veliminate
p3948
sI3981
Vbridges
p3949
sI3982
Vgear
p3950
sI3983
Vfeeding
p3951
sI3984
Vpatchen
p3952
sI3985
Vphilosophical
p3953
sI3986
Vperspective
p3954
sI3987
Vsessions
p3955
sI3988
Vpeaceful
p3956
sI3989
Vwoods
p3957
sI3990
Vbarton
p3958
sI3991
Vaboard
p3959
sI3992
Vimpressions
p3960
sI3993
Vhouston
p3961
sI3994
Vexposure
p3962
sI3995
Vmagnetic
p3963
sI3996
Vreaches
p3964
sI3997
Vattacked
p3965
sI3998
Vo'banion
p3966
sI3999
Vchin
p3967
sI4000
Vcorrespondence
p3968
sI4001
Vyeah
p3969
sI4002
Vpittsburgh
p3970
sI4003
Vfortune
p3971
sI4004
Vdelayed
p3972
sI4005
Vinspired
p3973
sI4006
Vhired
p3974
sI4007
Vpack
p3975
sI4008
Vcomposition
p3976
sI4009
Vpulling
p3977
sI4010
Vnorthwest
p3978
sI4011
Vstar
p3979
sI4012
Vtrading
p3980
sI4013
Vapproaches
p3981
sI4014
Valec
p3982
sI4015
Vcontinually
p3983
sI4016
Vamateur
p3984
sI4017
Vcritic
p3985
sI4018
Vaccused
p3986
sI4019
Vvivid
p3987
sI4020
Vnick
p3988
sI4021
Vdepartments
p3989
sI4022
Vpupils
p3990
sI4023
Vsuccession
p3991
sI4024
Vstructural
p3992
sI4025
Vfog
p3993
sI4026
Vnixon
p3994
sI4027
Vdealer
p3995
sI4028
Vapplications
p3996
sI4029
Vprospect
p3997
sI4030
Vcarolina
p3998
sI4031
Vracial
p3999
sI4032
Val
p4000
sI4033
Vowen
p4001
sI4034
Vd.c.
p4002
sI4035
Vpainful
p4003
sI4036
Vgenerous
p4004
sI4037
Vbearing
p4005
sI4038
Vsubtle
p4006
sI4039
Vflexible
p4007
sI4040
Vtransformed
p4008
sI4041
Vdilemma
p4009
sI4042
Vproductive
p4010
sI4043
Vcoverage
p4011
sI4044
Vblanche
p4012
sI4045
Vexhibit
p4013
sI4046
Vjersey
p4014
sI4047
Vnato
p4015
sI4048
Vrecommend
p4016
sI4049
Vshelters
p4017
sI4050
Vproceeded
p4018
sI4051
Vcorporations
p4019
sI4052
Vcancer
p4020
sI4053
Vlands
p4021
sI4054
Vallowances
p4022
sI4055
Vmothers
p4023
sI4056
Vwally
p4024
sI4057
Vpartially
p4025
sI4058
Vtrustees
p4026
sI4059
Vattracted
p4027
sI4060
Vbreaking
p4028
sI4061
Vsaddle
p4029
sI4062
Vstadium
p4030
sI4063
Vmagazines
p4031
sI4064
Vcontacts
p4032
sI4065
Vtorn
p4033
sI4066
Vvein
p4034
sI4067
Vgrateful
p4035
sI4068
Vrational
p4036
sI4069
Vconstitutional
p4037
sI4070
Vsuits
p4038
sI4071
Vtilghman
p4039
sI4072
Vadult
p4040
sI4073
Vward
p4041
sI4074
Vdestructive
p4042
sI4075
Vconferences
p4043
sI4076
Vpressing
p4044
sI4077
Vroughly
p4045
sI4078
Vpile
p4046
sI4079
Vtwenty-five
p4047
sI4080
Vcomponent
p4048
sI4081
Vharm
p4049
sI4082
Vfist
p4050
sI4083
Vsba
p4051
sI4084
Vaug.
p4052
sI4085
V300
p4053
sI4086
Vexploration
p4054
sI4087
Vglanced
p4055
sI4088
Veugene
p4056
sI4089
Vritual
p4057
sI4090
Vcontinuity
p4058
sI4091
Vlonely
p4059
sI4092
Vdisk
p4060
sI4093
Vfaint
p4061
sI4094
Vpond
p4062
sI4095
Vcigarette
p4063
sI4096
Vpatrol
p4064
sI4097
Vabandoned
p4065
sI4098
Vdetergent
p4066
sI4099
Vevidently
p4067
sI4100
Vobserve
p4068
sI4101
Vvague
p4069
sI4102
Vnoon
p4070
sI4103
Vregiment
p4071
sI4104
Vdevil
p4072
sI4105
Vviewed
p4073
sI4106
Vyours
p4074
sI4107
Vterror
p4075
sI4108
Vprobable
p4076
sI4109
Vparade
p4077
sI4110
Vpenny
p4078
sI4111
Vhoney
p4079
sI4112
Vattached
p4080
sI4113
Vresponsibilities
p4081
sI4114
Vdemonstration
p4082
sI4115
Vwildly
p4083
sI4116
Vtim
p4084
sI4117
Vconductor
p4085
sI4118
Vcocktail
p4086
sI4119
Vreflect
p4087
sI4120
Vintervals
p4088
sI4121
Voperational
p4089
sI4122
Vmason
p4090
sI4123
Vheating
p4091
sI4124
Vcivilian
p4092
sI4125
Ventering
p4093
sI4126
Vbarrel
p4094
sI4127
Voccupation
p4095
sI4128
Vlock
p4096
sI4129
Vbore
p4097
sI4130
Vautomobiles
p4098
sI4131
Vtubes
p4099
sI4132
Vjump
p4100
sI4133
Vcharming
p4101
sI4134
Vscarcely
p4102
sI4135
Vmanagers
p4103
sI4136
Vnearest
p4104
sI4137
Vdeclaration
p4105
sI4138
Vpromising
p4106
sI4139
Vconsisted
p4107
sI4140
Vzero
p4108
sI4141
Vportland
p4109
sI4142
Vbacked
p4110
sI4143
Vaccess
p4111
sI4144
Vrealism
p4112
sI4145
Vrecommendation
p4113
sI4146
Vqualified
p4114
sI4147
Vtheresa
p4115
sI4148
Vinterpreted
p4116
sI4149
Vadvisory
p4117
sI4150
Vactor
p4118
sI4151
Vcheap
p4119
sI4152
Vweekly
p4120
sI4153
Vmexican
p4121
sI4154
Vdiffusion
p4122
sI4155
Vcategories
p4123
sI4156
Vbend
p4124
sI4157
Vpuerto
p4125
sI4158
Vdrug
p4126
sI4159
Vexplicit
p4127
sI4160
Vspecimen
p4128
sI4161
Vseventeen
p4129
sI4162
Vford
p4130
sI4163
Vrigid
p4131
sI4164
Vaccurately
p4132
sI4165
Vtractor
p4133
sI4166
Vnervous
p4134
sI4167
Vtended
p4135
sI4168
Vcriminal
p4136
sI4169
Vwholly
p4137
sI4170
Venthusiastic
p4138
sI4171
Vestimates
p4139
sI4172
Vclubs
p4140
sI4173
Vannouncement
p4141
sI4174
Vsubjected
p4142
sI4175
Vexclusively
p4143
sI4176
Vdesires
p4144
sI4177
Vacademy
p4145
sI4178
Vtail
p4146
sI4179
Vsitter
p4147
sI4180
Vslid
p4148
sI4181
Vseated
p4149
sI4182
Vhonored
p4150
sI4183
Vpreliminary
p4151
sI4184
Vmoore
p4152
sI4185
Vpeas
p4153
sI4186
Vaimed
p4154
sI4187
Vfactories
p4155
sI4188
Vnorms
p4156
sI4189
Vmathematical
p4157
sI4190
Vworkshop
p4158
sI4191
Vdemocracy
p4159
sI4192
Vfunctional
p4160
sI4193
Vcontracts
p4161
sI4194
Vbiggest
p4162
sI4195
Vmotel
p4163
sI4196
Vrank
p4164
sI4197
Vcoach
p4165
sI4198
Vswing
p4166
sI4199
V70
p4167
sI4200
Vfiring
p4168
sI4201
Vnarrative
p4169
sI4202
Vseized
p4170
sI4203
Vneighboring
p4171
sI4204
Vchances
p4172
sI4205
Vruling
p4173
sI4206
Vabsorbed
p4174
sI4207
Vmanufacturing
p4175
sI4208
Vdraft
p4176
sI4209
Vrealization
p4177
sI4210
Vbroadway
p4178
sI4211
Vprospects
p4179
sI4212
Vcited
p4180
sI4213
Vmeaningful
p4181
s.