(dp1
I0
S'PAD'
p2
sI1
Vthe
p3
sI2
V,
sI3
V.
sI4
Vof
p4
sI5
Vand
p5
sI6
Vto
p6
sI7
Va
sI8
Vin
p7
sI9
Vthat
p8
sI10
Vis
p9
sI11
Vwas
p10
sI12
Vhe
p11
sI13
Vfor
p12
sI14
V``
p13
sI15
V''
p14
sI16
Vit
p15
sI17
Vwith
p16
sI18
Vas
p17
sI19
Vhis
p18
sI20
Von
p19
sI21
Vbe
p20
sI22
V;
sI23
Vat
p21
sI24
Vby
p22
sI25
Vi
sI26
Vthis
p23
sI27
Vhad
p24
sI28
V?
sI29
Vnot
p25
sI30
Vare
p26
sI31
Vbut
p27
sI32
Vfrom
p28
sI33
Vor
p29
sI34
Vhave
p30
sI35
Van
p31
sI36
Vthey
p32
sI37
Vwhich
p33
sI38
V--
p34
sI39
Vone
p35
sI40
Vyou
p36
sI41
Vwere
p37
sI42
Vher
p38
sI43
Vall
p39
sI44
Vshe
p40
sI45
Vthere
p41
sI46
Vwould
p42
sI47
Vtheir
p43
sI48
Vwe
p44
sI49
Vhim
p45
sI50
Vbeen
p46
sI51
V)
sI52
Vhas
p47
sI53
V(
sI54
Vwhen
p48
sI55
Vwho
p49
sI56
Vwill
p50
sI57
Vmore
p51
sI58
Vif
p52
sI59
Vno
p53
sI60
Vout
p54
sI61
Vso
p55
sI62
Vsaid
p56
sI63
Vwhat
p57
sI64
Vup
p58
sI65
Vits
p59
sI66
Vabout
p60
sI67
V:
sI68
Vinto
p61
sI69
Vthan
p62
sI70
Vthem
p63
sI71
Vcan
p64
sI72
Vonly
p65
sI73
Vother
p66
sI74
Vnew
p67
sI75
Vsome
p68
sI76
Vcould
p69
sI77
Vtime
p70
sI78
V!
sI79
Vthese
p71
sI80
Vtwo
p72
sI81
Vmay
p73
sI82
Vthen
p74
sI83
Vdo
p75
sI84
Vfirst
p76
sI85
Vany
p77
sI86
Vmy
p78
sI87
Vnow
p79
sI88
Vsuch
p80
sI89
Vlike
p81
sI90
Vour
p82
sI91
Vover
p83
sI92
Vman
p84
sI93
Vme
p85
sI94
Veven
p86
sI95
Vmost
p87
sI96
Vmade
p88
sI97
Valso
p89
sI98
Vafter
p90
sI99
Vdid
p91
sI100
Vmany
p92
sI101
Vbefore
p93
sI102
Vmust
p94
sI103
Vaf
p95
sI104
Vthrough
p96
sI105
Vback
p97
sI106
Vyears
p98
sI107
Vmuch
p99
sI108
Vwhere
p100
sI109
Vyour
p101
sI110
Vway
p102
sI111
Vwell
p103
sI112
Vdown
p104
sI113
Vshould
p105
sI114
Vbecause
p106
sI115
Veach
p107
sI116
Vjust
p108
sI117
Vthose
p109
sI118
Vpeople
p110
sI119
Vmr.
p111
sI120
Vtoo
p112
sI121
Vhow
p113
sI122
Vlittle
p114
sI123
Vstate
p115
sI124
Vgood
p116
sI125
Vvery
p117
sI126
Vmake
p118
sI127
Vworld
p119
sI128
Vstill
p120
sI129
Vsee
p121
sI130
Vown
p122
sI131
Vmen
p123
sI132
Vwork
p124
sI133
Vlong
p125
sI134
Vhere
p126
sI135
Vget
p127
sI136
Vbetween
p128
sI137
Vboth
p129
sI138
Vlife
p130
sI139
Vbeing
p131
sI140
Vunder
p132
sI141
Vnever
p133
sI142
Vday
p134
sI143
Vsame
p135
sI144
Vanother
p136
sI145
Vknow
p137
sI146
Vwhile
p138
sI147
Vlast
p139
sI148
Vus
p140
sI149
Vmight
p141
sI150
Vgreat
p142
sI151
Vold
p143
sI152
Vyear
p144
sI153
Voff
p145
sI154
Vcome
p146
sI155
Vsince
p147
sI156
Vagainst
p148
sI157
Vgo
p149
sI158
Vcame
p150
sI159
Vright
p151
sI160
Vused
p152
sI161
Vtake
p153
sI162
Vthree
p154
sI163
Vstates
p155
sI164
Vhimself
p156
sI165
Vfew
p157
sI166
Vuse
p158
sI167
Vhouse
p159
sI168
Vduring
p160
sI169
Vwithout
p161
sI170
Vagain
p162
sI171
Vplace
p163
sI172
Vamerican
p164
sI173
Varound
p165
sI174
Vhowever
p166
sI175
Vhome
p167
sI176
Vsmall
p168
sI177
Vfound
p169
sI178
Vmrs.
p170
sI179
V1
sI180
Vthought
p171
sI181
Vwent
p172
sI182
Vsay
p173
sI183
Vpart
p174
sI184
Vonce
p175
sI185
Vgeneral
p176
sI186
Vhigh
p177
sI187
Vupon
p178
sI188
Vschool
p179
sI189
Vevery
p180
sI190
Vdon't
p181
sI191
Vdoes
p182
sI192
Vgot
p183
sI193
Vunited
p184
sI194
Vleft
p185
sI195
Vnumber
p186
sI196
Vcourse
p187
sI197
Vwar
p188
sI198
Vuntil
p189
sI199
Valways
p190
sI200
Vaway
p191
sI201
Vsomething
p192
sI202
Vfact
p193
sI203
V2
sI204
Vwater
p194
sI205
Vthough
p195
sI206
Vpublic
p196
sI207
Vput
p197
sI208
Vless
p198
sI209
Vthink
p199
sI210
Valmost
p200
sI211
Vhand
p201
sI212
Venough
p202
sI213
Vtook
p203
sI214
Vfar
p204
sI215
Vhead
p205
sI216
Vyet
p206
sI217
Vgovernment
p207
sI218
Vsystem
p208
sI219
Vset
p209
sI220
Vbetter
p210
sI221
Vtold
p211
sI222
Vnight
p212
sI223
Vnothing
p213
sI224
Vend
p214
sI225
Vwhy
p215
sI226
Vdidn't
p216
sI227
Veyes
p217
sI228
Vcalled
p218
sI229
Vfind
p219
sI230
Vlook
p220
sI231
Vgoing
p221
sI232
Vasked
p222
sI233
Vlater
p223
sI234
Vpoint
p224
sI235
Vknew
p225
sI236
Vnext
p226
sI237
Vprogram
p227
sI238
Vcity
p228
sI239
Vbusiness
p229
sI240
Vgroup
p230
sI241
Vgive
p231
sI242
Vtoward
p232
sI243
Vyoung
p233
sI244
Vroom
p234
sI245
Vdays
p235
sI246
Vlet
p236
sI247
Vpresident
p237
sI248
Vside
p238
sI249
Vsocial
p239
sI250
Vseveral
p240
sI251
Vgiven
p241
sI252
Vpresent
p242
sI253
Vorder
p243
sI254
Vnational
p244
sI255
Vpossible
p245
sI256
Vrather
p246
sI257
Vsecond
p247
sI258
Vper
p248
sI259
Vface
p249
sI260
Vamong
p250
sI261
Vform
p251
sI262
Vimportant
p252
sI263
Voften
p253
sI264
Vthings
p254
sI265
Vlooked
p255
sI266
Vearly
p256
sI267
Vwhite
p257
sI268
Vjohn
p258
sI269
Vcase
p259
sI270
Vlarge
p260
sI271
Vfour
p261
sI272
Vneed
p262
sI273
Vbig
p263
sI274
Vbecome
p264
sI275
Vwithin
p265
sI276
Vfelt
p266
sI277
Valong
p267
sI278
Vchildren
p268
sI279
Vsaw
p269
sI280
Vbest
p270
sI281
Vchurch
p271
sI282
Vever
p272
sI283
Vleast
p273
sI284
Vpower
p274
sI285
Vdevelopment
p275
sI286
Vseemed
p276
sI287
Vthing
p277
sI288
Vlight
p278
sI289
Vfamily
p279
sI290
Vinterest
p280
sI291
Vwant
p281
sI292
Vmembers
p282
sI293
Vmind
p283
sI294
Vcountry
p284
sI295
Varea
p285
sI296
Vothers
p286
sI297
Valthough
p287
sI298
Vturned
p288
sI299
Vdone
p289
sI300
Vopen
p290
sI301
V'
sI302
Vgod
p291
sI303
Vservice
p292
sI304
Vproblem
p293
sI305
Vkind
p294
sI306
Vcertain
p295
sI307
Vdoor
p296
sI308
Vbegan
p297
sI309
Vthus
p298
sI310
Vdifferent
p299
sI311
Vsense
p300
sI312
Vhelp
p301
sI313
Vmeans
p302
sI314
Vwhole
p303
sI315
Vmatter
p304
sI316
Vperhaps
p305
sI317
Vitself
p306
sI318
Vit's
p307
sI319
Vyork
p308
sI320
Vtimes
p309
sI321
Vhuman
p310
sI322
Vlaw
p311
sI323
Vline
p312
sI324
Vabove
p313
sI325
Vname
p314
sI326
Vexample
p315
sI327
Vaction
p316
sI328
Vcompany
p317
sI329
Vhands
p318
sI330
Vlocal
p319
sI331
Vshow
p320
sI332
V3
sI333
Vhistory
p321
sI334
Vwhether
p322
sI335
Vfive
p323
sI336
Vgave
p324
sI337
Vtoday
p325
sI338
Veither
p326
sI339
Vfeet
p327
sI340
Vact
p328
sI341
Vacross
p329
sI342
Vpast
p330
sI343
Vtaken
p331
sI344
Vquite
p332
sI345
Vanything
p333
sI346
Vhaving
p334
sI347
Vseen
p335
sI348
Vdeath
p336
sI349
Vexperience
p337
sI350
Vbody
p338
sI351
Vweek
p339
sI352
Vhalf
p340
sI353
Vreally
p341
sI354
Vfield
p342
sI355
Vcar
p343
sI356
Vword
p344
sI357
Vwords
p345
sI358
Valready
p346
sI359
Vthemselves
p347
sI360
Vi'm
p348
sI361
Vinformation
p349
sI362
Vtell
p350
sI363
Vshall
p351
sI364
Vtogether
p352
sI365
Vcollege
p353
sI366
Vperiod
p354
sI367
Vmoney
p355
sI368
Vkeep
p356
sI369
Vheld
p357
sI370
Vsure
p358
sI371
Vprobably
p359
sI372
Vseems
p360
sI373
Vfree
p361
sI374
Vreal
p362
sI375
Vbehind
p363
sI376
Vcannot
p364
sI377
Vpolitical
p365
sI378
Vquestion
p366
sI379
Vair
p367
sI380
Voffice
p368
sI381
Vmaking
p369
sI382
Vbrought
p370
sI383
Vmiss
p371
sI384
Vwhose
p372
sI385
Vspecial
p373
sI386
Vheard
p374
sI387
Vproblems
p375
sI388
Vmajor
p376
sI389
Vmoment
p377
sI390
Vfederal
p378
sI391
Vago
p379
sI392
Vstudy
p380
sI393
Vbecame
p381
sI394
Vavailable
p382
sI395
Vknown
p383
sI396
Vstreet
p384
sI397
Vresult
p385
sI398
Veconomic
p386
sI399
Vboy
p387
sI400
Vreason
p388
sI401
Vposition
p389
sI402
Vchange
p390
sI403
Vsouth
p391
sI404
Vindividual
p392
sI405
Vboard
p393
sI406
Vjob
p394
sI407
Vam
p395
sI408
Vsociety
p396
sI409
Vareas
p397
sI410
Vwest
p398
sI411
Vclose
p399
sI412
Vturn
p400
sI413
Vlove
p401
sI414
Vcommunity
p402
sI415
Vtrue
p403
sI416
Vfull
p404
sI417
Vcourt
p405
sI418
Vforce
p406
sI419
Vcost
p407
sI420
Vseem
p408
sI421
Vwife
p409
sI422
Vfuture
p410
sI423
Vage
p411
sI424
Vvoice
p412
sI425
Vwanted
p413
sI426
Vdepartment
p414
sI427
Vcenter
p415
sI428
Vwoman
p416
sI429
Vcommon
p417
sI430
Vcontrol
p418
sI431
Vnecessary
p419
sI432
Vpolicy
p420
sI433
Vfollowing
p421
sI434
Vsometimes
p422
sI435
Vfront
p423
sI436
Vsix
p424
sI437
Vgirl
p425
sI438
Vclear
p426
sI439
Vland
p427
sI440
Vfurther
p428
sI441
Vmusic
p429
sI442
Vprovide
p430
sI443
Vparty
p431
sI444
Vmother
p432
sI445
Vfeel
p433
sI446
Vable
p434
sI447
Vuniversity
p435
sI448
Veducation
p436
sI449
Vlevel
p437
sI450
Vchild
p438
sI451
Vstudents
p439
sI452
Veffect
p440
sI453
Vshort
p441
sI454
Vmilitary
p442
sI455
Vrun
p443
sI456
Vtown
p444
sI457
Vstood
p445
sI458
Vmorning
p446
sI459
Vtotal
p447
sI460
Voutside
p448
sI461
Vfigure
p449
sI462
Vrate
p450
sI463
Vart
p451
sI464
Vcentury
p452
sI465
Vclass
p453
sI466
Vnorth
p454
sI467
V4
sI468
Vusually
p455
sI469
Vwashington
p456
sI470
Vtherefore
p457
sI471
Vplan
p458
sI472
Vleave
p459
sI473
Vsound
p460
sI474
Vmillion
p461
sI475
Vevidence
p462
sI476
Vtop
p463
sI477
Vblack
p464
sI478
Vstrong
p465
sI479
Vhard
p466
sI480
Vtax
p467
sI481
Vvarious
p468
sI482
Vsurface
p469
sI483
Vplay
p470
sI484
Vtype
p471
sI485
Vvalue
p472
sI486
Vsays
p473
sI487
Vbelieve
p474
sI488
Vsoon
p475
sI489
Vmean
p476
sI490
Vpeace
p477
sI491
Vnear
p478
sI492
Vtable
p479
sI493
Vmodern
p480
sI494
Vlines
p481
sI495
Vred
p482
sI496
Vroad
p483
sI497
Vbook
p484
sI498
Vsituation
p485
sI499
Vprocess
p486
sI500
Vpersonal
p487
sI501
Vminutes
p488
sI502
Vnor
p489
sI503
Vgone
p490
sI504
Videa
p491
sI505
Vschools
p492
sI506
Vincrease
p493
sI507
Valone
p494
sI508
Vwomen
p495
sI509
Venglish
p496
sI510
Vamerica
p497
sI511
Vstarted
p498
sI512
Vliving
p499
sI513
Vlonger
p500
sI514
Vcut
p501
sI515
Vdr.
p502
sI516
Vnature
p503
sI517
Vsecretary
p504
sI518
Vprivate
p505
sI519
Vfinally
p506
sI520
Vthird
p507
sI521
Vmonths
p508
sI522
Vsection
p509
sI523
Vcall
p510
sI524
Vgreater
p511
sI525
Vneeded
p512
sI526
Vfire
p513
sI527
Vthat's
p514
sI528
Vexpected
p515
sI529
Vground
p516
sI530
Vvalues
p517
sI531
Vkept
p518
sI532
Vview
p519
sI533
Vpressure
p520
sI534
Vdark
p521
sI535
Veverything
p522
sI536
Vbasis
p523
sI537
Vspace
p524
sI538
Vfather
p525
sI539
Veast
p526
sI540
Vunion
p527
sI541
Vspirit
p528
sI542
Vrequired
p529
sI543
Vcomplete
p530
sI544
Vwrote
p531
sI545
Vmoved
p532
sI546
Vexcept
p533
sI547
Vi'll
p534
sI548
Vsupport
p535
sI549
Vconditions
p536
sI550
Vreturn
p537
sI551
Vrecent
p538
sI552
Vattention
p539
sI553
Vlate
p540
sI554
Vparticular
p541
sI555
Vhope
p542
sI556
Vlive
p543
sI557
Vcosts
p544
sI558
Velse
p545
sI559
Vbrown
p546
sI560
Vcouldn't
p547
sI561
Vstage
p548
sI562
Vtaking
p549
sI563
Vnations
p550
sI564
Vforces
p551
sI565
Vbeyond
p552
sI566
Vdead
p553
sI567
Vhours
p554
sI568
Vread
p555
sI569
Vinside
p556
sI570
Vperson
p557
sI571
Vreport
p558
sI572
Vmaterial
p559
sI573
Vcoming
p560
sI574
Vlost
p561
sI575
Vmiles
p562
sI576
Vdata
p563
sI577
Vlooking
p564
sI578
Vheart
p565
sI579
Vlow
p566
sI580
Vinstead
p567
sI581
Vfeeling
p568
sI582
Vfollowed
p569
sI583
Vmakes
p570
sI584
Vsingle
p571
sI585
V1960
p572
sI586
Vamount
p573
sI587
Vadded
p574
sI588
Vpay
p575
sI589
Vresearch
p576
sI590
Vhundred
p577
sI591
Vincluding
p578
sI592
Vindustry
p579
sI593
Vcold
p580
sI594
Vmove
p581
sI595
Vsimply
p582
sI596
Vbasic
p583
sI597
Vdeveloped
p584
sI598
Vtried
p585
sI599
Vcan't
p586
sI600
Vreached
p587
sI601
Vhold
p588
sI602
Vcommittee
p589
sI603
Vequipment
p590
sI604
Vdefense
p591
sI605
Visland
p592
sI606
Vshown
p593
sI607
Vactually
p594
sI608
Vreligious
p595
sI609
Vcentral
p596
sI610
Vson
p597
sI611
Vriver
p598
sI612
Vbeginning
p599
sI613
Vten
p600
sI614
Vsort
p601
sI615
Vst.
p602
sI616
Vgetting
p603
sI617
Vtrying
p604
sI618
V&
sI619
Vrest
p605
sI620
Vterms
p606
sI621
Vdoing
p607
sI622
Vreceived
p608
sI623
Vu.s.
p609
sI624
Vpicture
p610
sI625
Vindeed
p611
sI626
Vmedical
p612
sI627
Vcare
p613
sI628
Vfriends
p614
sI629
Vespecially
p615
sI630
Vdifficult
p616
sI631
Vsubject
p617
sI632
Vfine
p618
sI633
Vadministration
p619
sI634
Vhigher
p620
sI635
Vsimple
p621
sI636
Vwall
p622
sI637
Vbuilding
p623
sI638
Vwalked
p624
sI639
Vmeeting
p625
sI640
Vforeign
p626
sI641
Vbring
p627
sI642
Vfloor
p628
sI643
Vpaper
p629
sI644
Vsimilar
p630
sI645
Vrange
p631
sI646
Vpassed
p632
sI647
Vnatural
p633
sI648
Vproperty
p634
sI649
Vtraining
p635
sI650
Vfinal
p636
sI651
Vcent
p637
sI652
Vinternational
p638
sI653
Vpolice
p639
sI654
Vcounty
p640
sI655
Vgrowth
p641
sI656
Vmarket
p642
sI657
Vstart
p643
sI658
Vwritten
p644
sI659
Vwasn't
p645
sI660
Vtalk
p646
sI661
Vengland
p647
sI662
Vstory
p648
sI663
Vhear
p649
sI664
Vsuddenly
p650
sI665
Vneeds
p651
sI666
Vcongress
p652
sI667
Vhall
p653
sI668
Vanswer
p654
sI669
Vissue
p655
sI670
V10
p656
sI671
Vworking
p657
sI672
Vyou're
p658
sI673
Vlikely
p659
sI674
Vcountries
p660
sI675
Vconsidered
p661
sI676
Vsat
p662
sI677
Vearth
p663
sI678
Vmeet
p664
sI679
Ventire
p665
sI680
Vresults
p666
sI681
Vlabor
p667
sI682
Vpurpose
p668
sI683
Vhappened
p669
sI684
Vproduction
p670
sI685
Vhair
p671
sI686
Vcases
p672
sI687
Vdifference
p673
sI688
Vstand
p674
sI689
Vwilliam
p675
sI690
Vfood
p676
sI691
Vfall
p677
sI692
Vstock
p678
sI693
Vinvolved
p679
sI694
Vearlier
p680
sI695
Vincreased
p681
sI696
Vparticularly
p682
sI697
Vwhom
p683
sI698
Vknowledge
p684
sI699
Vletter
p685
sI700
Vsent
p686
sI701
Veffort
p687
sI702
Vpaid
p688
sI703
Vusing
p689
sI704
Vbelow
p690
sI705
Vclub
p691
sI706
Vthinking
p692
sI707
Vhour
p693
sI708
Vyes
p694
sI709
Vchristian
p695
sI710
Vdeal
p696
sI711
Vblue
p697
sI712
Vpoints
p698
sI713
Vbill
p699
sI714
Vsquare
p700
sI715
Vcertainly
p701
sI716
Vready
p702
sI717
Vboys
p703
sI718
Videas
p704
sI719
Vtrade
p705
sI720
Vindustrial
p706
sI721
Vmethods
p707
sI722
Vaddition
p708
sI723
Vgirls
p709
sI724
Vdue
p710
sI725
Vmethod
p711
sI726
Vmoral
p712
sI727
Vbad
p713
sI728
V5
sI729
Vneither
p714
sI730
Vreading
p715
sI731
Vthroughout
p716
sI732
Vshowed
p717
sI733
Vdirectly
p718
sI734
Vweeks
p719
sI735
Vdecided
p720
sI736
Vnearly
p721
sI737
Vstatement
p722
sI738
Vquestions
p723
sI739
Vaccording
p724
sI740
Vcolor
p725
sI741
Vtry
p726
sI742
Vanyone
p727
sI743
Vkennedy
p728
sI744
Vprograms
p729
sI745
Vservices
p730
sI746
Vnation
p731
sI747
Vlay
p732
sI748
Vfrench
p733
sI749
Vphysical
p734
sI750
Vremember
p735
sI751
Vsize
p736
sI752
Vstrength
p737
sI753
Vcomes
p738
sI754
Vunderstand
p739
sI755
Vwestern
p740
sI756
Vrecord
p741
sI757
Vsouthern
p742
sI758
Vmember
p743
sI759
Vpopulation
p744
sI760
Vnormal
p745
sI761
Vmerely
p746
sI762
Vvolume
p747
sI763
Vappeared
p748
sI764
Vtemperature
p749
sI765
Vdistrict
p750
sI766
Vconcerned
p751
sI767
V1961
p752
sI768
Vdirection
p753
sI769
Vtrial
p754
sI770
Vaid
p755
sI771
Vsummer
p756
sI772
Vtrouble
p757
sI773
Vran
p758
sI774
Vevening
p759
sI775
Vlist
p760
sI776
Vfriend
p761
sI777
Vsales
p762
sI778
Vmaybe
p763
sI779
Vliterature
p764
sI780
Vcontinued
p765
sI781
Vmet
p766
sI782
Vinfluence
p767
sI783
Vled
p768
sI784
Vgenerally
p769
sI785
Vassociation
p770
sI786
Vprovided
p771
sI787
Varmy
p772
sI788
Vformer
p773
sI789
Vscience
p774
sI790
Vopened
p775
sI791
Vhusband
p776
sI792
Vstep
p777
sI793
Vstudent
p778
sI794
Vchance
p779
sI795
Vchanges
p780
sI796
Vmonth
p781
sI797
Vcause
p782
sI798
Vworks
p783
sI799
Vseries
p784
sI800
Vaverage
p785
sI801
Vhot
p786
sI802
Vwrong
p787
sI803
Vsystems
p788
sI804
Vwouldn't
p789
sI805
Vdirect
p790
sI806
Veffective
p791
sI807
Vtheory
p792
sI808
Vplanning
p793
sI809
Vstopped
p794
sI810
Vsoviet
p795
sI811
Vmyself
p796
sI812
Vpiece
p797
sI813
Vgeorge
p798
sI814
Vlead
p799
sI815
Vclearly
p800
sI816
Vask
p801
sI817
Vorganization
p802
sI818
Vworked
p803
sI819
Vfreedom
p804
sI820
Vmovement
p805
sI821
Vways
p806
sI822
Vfear
p807
sI823
Vpress
p808
sI824
Vbeautiful
p809
sI825
Vtreatment
p810
sI826
Vbed
p811
sI827
Vspring
p812
sI828
Vforms
p813
sI829
Vlot
p814
sI830
Vnote
p815
sI831
Vmeaning
p816
sI832
Vconsider
p817
sI833
Vsomewhat
p818
sI834
Vefforts
p819
sI835
Vplaced
p820
sI836
Vtruth
p821
sI837
Vhotel
p822
sI838
Vnumbers
p823
sI839
Vdegree
p824
sI840
Vcarried
p825
sI841
Vherself
p826
sI842
Vman's
p827
sI843
Vgroups
p828
sI844
Vapparently
p829
sI845
Vplant
p830
sI846
Vhe's
p831
sI847
Vwide
p832
sI848
Vrespect
p833
sI849
Vi've
p834
sI850
Vfarm
p835
sI851
Vmanner
p836
sI852
Veasy
p837
sI853
Vreaction
p838
sI854
Vlarger
p839
sI855
Vrecently
p840
sI856
Vlower
p841
sI857
Vgame
p842
sI858
Vimmediately
p843
sI859
Vapproach
p844
sI860
Vrunning
p845
sI861
Vcouple
p846
sI862
Vperformance
p847
sI863
Vde
p848
sI864
Voh
p849
sI865
Veye
p850
sI866
Vcharge
p851
sI867
Vfeed
p852
sI868
Vdaily
p853
sI869
Vpersons
p854
sI870
Vmarch
p855
sI871
Vblood
p856
sI872
Vunderstanding
p857
sI873
Vopportunity
p858
sI874
Varms
p859
sI875
Vc
sI876
Vadditional
p860
sI877
Vdescribed
p861
sI878
Vstop
p862
sI879
Vj.
p863
sI880
Vtechnical
p864
sI881
Vfiscal
p865
sI882
Vradio
p866
sI883
Vprogress
p867
sI884
Vtest
p868
sI885
Vdecision
p869
sI886
Vsteps
p870
sI887
Vimage
p871
sI888
Vdetermined
p872
sI889
Vwindow
p873
sI890
Vbased
p874
sI891
Vserved
p875
sI892
Vreported
p876
sI893
Vreligion
p877
sI894
Vmain
p878
sI895
Vchief
p879
sI896
Vgun
p880
sI897
Vaj
p881
sI898
Vmiddle
p882
sI899
Vbritish
p883
sI900
Vcharacter
p884
sI901
Vresponsibility
p885
sI902
Veurope
p886
sI903
Vlearned
p887
sI904
Vhorse
p888
sI905
Vs.
p889
sI906
Vappear
p890
sI907
Vaccount
p891
sI908
Vwriting
p892
sI909
Vtypes
p893
sI910
Vlength
p894
sI911
Vgreen
p895
sI912
Vactivity
p896
sI913
Vserious
p897
sI914
Vones
p898
sI915
Vnuclear
p899
sI916
Vletters
p900
sI917
Vlived
p901
sI918
Vobtained
p902
sI919
Vaudience
p903
sI920
Vforward
p904
sI921
Vspecific
p905
sI922
Vreturned
p906
sI923
Vslowly
p907
sI924
Vcorner
p908
sI925
Vactivities
p909
sI926
Vjustice
p910
sI927
Vobviously
p911
sI928
Vstraight
p912
sI929
Vdoubt
p913
sI930
Vdesign
p914
sI931
V6
sI932
Vlatter
p915
sI933
Vgives
p916
sI934
Vplane
p917
sI935
Vquality
p918
sI936
Vhit
p919
sI937
Vmoving
p920
sI938
Vsaying
p921
sI939
Vchoice
p922
sI940
Voperation
p923
sI941
Vborn
p924
sI942
Vpoor
p925
sI943
Vparts
p926
sI944
Vstay
p927
sI945
Vseven
p928
sI946
Vinclude
p929
sI947
Va.
p930
sI948
Vfigures
p931
sI949
Vfunction
p932
sI950
V15
p933
sI951
Vshot
p934
sI952
Vstaff
p935
sI953
Vpattern
p936
sI954
Vplans
p937
sI955
Vsun
p938
sI956
Vcars
p939
sI957
V30
p940
sI958
Vwhatever
p941
sI959
Vpool
p942
sI960
Vfaith
p943
sI961
Vextent
p944
sI962
Vcorps
p945
sI963
Vhospital
p946
sI964
Vball
p947
sI965
Vstandard
p948
sI966
Vwish
p949
sI967
Vheavy
p950
sI968
Vcompletely
p951
sI969
Vspeak
p952
sI970
Vlack
p953
sI971
Vwaiting
p954
sI972
Vfirm
p955
sI973
Vahead
p956
sI974
Vthere's
p957
sI975
Vlanguage
p958
sI976
Vincome
p959
sI977
Vprinciple
p960
sI978
Vdeep
p961
sI979
Vdemocratic
p962
sI980
Vvisit
p963
sI981
Veffects
p964
sI982
Vindicated
p965
sI983
Vestablished
p966
sI984
Vproducts
p967
sI985
Vgrowing
p968
sI986
Vdesigned
p969
sI987
Vnone
p970
sI988
Vprice
p971
sI989
Vdistance
p972
sI990
Vexpect
p973
sI991
Vimportance
p974
sI992
Vanalysis
p975
sI993
Vpretty
p976
sI994
Vexistence
p977
sI995
Vleaders
p978
sI996
Vserve
p979
sI997
Vcontinue
p980
sI998
Vdivision
p981
sI999
Vstress
p982
sI1000
Vcities
p983
sI1001
Vattitude
p984
sI1002
Velements
p985
sI1003
Veasily
p986
sI1004
Vnegro
p987
sI1005
Vdetermine
p988
sI1006
Vscene
p989
sI1007
Vafternoon
p990
sI1008
Vagreement
p991
sI1009
Vhardly
p992
sI1010
Vapplied
p993
sI1011
V8
sI1012
Vlimited
p994
sI1013
Vwrite
p995
sI1014
Vremained
p996
sI1015
Vfactors
p997
sI1016
Vclosed
p998
sI1017
Vprofessional
p999
sI1018
Vstation
p1000
sI1019
Vsuggested
p1001
sI1020
Vwon't
p1002
sI1021
Vinterested
p1003
sI1022
Vattack
p1004
sI1023
Vb
sI1024
Vmarried
p1005
sI1025
Vdrive
p1006
sI1026
Vrhode
p1007
sI1027
Vhealth
p1008
sI1028
Vseason
p1009
sI1029
Vreach
p1010
sI1030
Vrole
p1011
sI1031
Vdespite
p1012
sI1032
Vi'd
p1013
sI1033
Vcurrent
p1014
sI1034
Vspent
p1015
sI1035
Veight
p1016
sI1036
Vplayed
p1017
sI1037
Vbecomes
p1018
sI1038
Vcovered
p1019
sI1039
Vmouth
p1020
sI1040
Vcommission
p1021
sI1041
Vmachine
p1022
sI1042
Vstudies
p1023
sI1043
Vdate
p1024
sI1044
Vreasons
p1025
sI1045
Vrace
p1026
sI1046
Vteeth
p1027
sI1047
Vcouncil
p1028
sI1048
Voriginal
p1029
sI1049
Vunit
p1030
sI1050
Vexactly
p1031
sI1051
Vbuilt
p1032
sI1052
Vnews
p1033
sI1053
Vdemand
p1034
sI1054
Vsupply
p1035
sI1055
V1959
p1036
sI1056
Vprepared
p1037
sI1057
Vrelated
p1038
sI1058
Vrelations
p1039
sI1059
Vrates
p1040
sI1060
Vrise
p1041
sI1061
Vdirector
p1042
sI1062
Vstanding
p1043
sI1063
Vtrees
p1044
sI1064
Vsunday
p1045
sI1065
Vdropped
p1046
sI1066
Vevents
p1047
sI1067
Vraised
p1048
sI1068
Vplaying
p1049
sI1069
Vofficer
p1050
sI1070
Vjames
p1051
sI1071
Vbit
p1052
sI1072
Vunless
p1053
sI1073
Vplaces
p1054
sI1074
Vclay
p1055
sI1075
Vsides
p1056
sI1076
Vthomas
p1057
sI1077
Vtalking
p1058
sI1078
Vmeant
p1059
sI1079
Venergy
p1060
sI1080
Vfacilities
p1061
sI1081
Vwalk
p1062
sI1082
Vdoctor
p1063
sI1083
Vtechniques
p1064
sI1084
Vhadn't
p1065
sI1085
Vfilled
p1066
sI1086
Vjazz
p1067
sI1087
Vgas
p1068
sI1088
Vactual
p1069
sI1089
Vglass
p1070
sI1090
Vknows
p1071
sI1091
Vpoet
p1072
sI1092
Vjune
p1073
sI1093
Vcaught
p1074
sI1094
Vpopular
p1075
sI1095
Ventered
p1076
sI1096
Vbridge
p1077
sI1097
Vhappy
p1078
sI1098
Vfight
p1079
sI1099
Vinstitutions
p1080
sI1100
Vmass
p1081
sI1101
Vconcern
p1082
sI1102
Vstyle
p1083
sI1103
Vclaim
p1084
sI1104
Vshare
p1085
sI1105
Vchicago
p1086
sI1106
Vhe'd
p1087
sI1107
Vcommunist
p1088
sI1108
Vstatus
p1089
sI1109
Vdollars
p1090
sI1110
Vthousand
p1091
sI1111
Visn't
p1092
sI1112
Vheat
p1093
sI1113
Vincluded
p1094
sI1114
Vfollow
p1095
sI1115
Vradiation
p1096
sI1116
Vcattle
p1097
sI1117
Vmaterials
p1098
sI1118
Vsuppose
p1099
sI1119
Vchrist
p1100
sI1120
Vconsiderable
p1101
sI1121
Vbooks
p1102
sI1122
Vprimary
p1103
sI1123
Vconference
p1104
sI1124
Vchurches
p1105
sI1125
Vgiving
p1106
sI1126
Vcharles
p1107
sI1127
Vusual
p1108
sI1128
V12
p1109
sI1129
Vfilm
p1110
sI1130
Vaccepted
p1111
sI1131
Vopinion
p1112
sI1132
Vbehavior
p1113
sI1133
Vsitting
p1114
sI1134
Vsuccessful
p1115
sI1135
Vmarriage
p1116
sI1136
Vsea
p1117
sI1137
Vconstruction
p1118
sI1138
Vhell
p1119
sI1139
Vattempt
p1120
sI1140
Voil
p1121
sI1141
Vproper
p1122
sI1142
Vsir
p1123
sI1143
Vchanged
p1124
sI1144
Vfunds
p1125
sI1145
Vworth
p1126
sI1146
Vdiscussion
p1127
sI1147
V7
sI1148
Vsource
p1128
sI1149
Vshows
p1129
sI1150
Vtradition
p1130
sI1151
Veveryone
p1131
sI1152
Vsign
p1132
sI1153
Vhighly
p1133
sI1154
Vpark
p1134
sI1155
Vwait
p1135
sI1156
Vsomeone
p1136
sI1157
Varm
p1137
sI1158
Vpractice
p1138
sI1159
Vsuccess
p1139
sI1160
Vauthority
p1140
sI1161
Vremain
p1141
sI1162
Vc.
p1142
sI1163
Vproject
p1143
sI1164
Volder
p1144
sI1165
Vlord
p1145
sI1166
Vamericans
p1146
sI1167
Vannual
p1147
sI1168
Vleadership
p1148
sI1169
Vfell
p1149
sI1170
Vprincipal
p1150
sI1171
Vobvious
p1151
sI1172
Vjack
p1152
sI1173
Vthin
p1153
sI1174
Vpieces
p1154
sI1175
V20
p1155
sI1176
Vobjective
p1156
sI1177
Vparents
p1157
sI1178
Vdinner
p1158
sI1179
Vweight
p1159
sI1180
Vrecords
p1160
sI1181
Vcondition
p1161
sI1182
Vsecurity
p1162
sI1183
Ventirely
p1163
sI1184
Vbase
p1164
sI1185
Vcomplex
p1165
sI1186
V1958
p1166
sI1187
Vmanagement
p1167
sI1188
Vfrequently
p1168
sI1189
Vcivil
p1169
sI1190
Vmike
p1170
sI1191
Vstructure
p1171
sI1192
Vmeasure
p1172
sI1193
Vcaused
p1173
sI1194
Vkitchen
p1174
sI1195
Vequal
p1175
sI1196
Vcorporation
p1176
sI1197
Vyou'll
p1177
sI1198
Vbalance
p1178
sI1199
Vpurposes
p1179
sI1200
Vproduced
p1180
sI1201
Vdance
p1181
sI1202
Vnoted
p1182
sI1203
Vpass
p1183
sI1204
Vdevelop
p1184
sI1205
Vlondon
p1185
sI1206
Vgoes
p1186
sI1207
Vfamous
p1187
sI1208
Vclothes
p1188
sI1209
Vnames
p1189
sI1210
Vfailure
p1190
sI1211
Vquickly
p1191
sI1212
Vregard
p1192
sI1213
Vpublished
p1193
sI1214
Vbottom
p1194
sI1215
Vking
p1195
sI1216
Vleaving
p1196
sI1217
Vdoesn't
p1197
sI1218
Vrelationship
p1198
sI1219
Vcover
p1199
sI1220
Vmoreover
p1200
sI1221
Vpoetry
p1201
sI1222
Vcarry
p1202
sI1223
Vpain
p1203
sI1224
Vannounced
p1204
sI1225
Vgreatest
p1205
sI1226
Vlaws
p1206
sI1227
Venemy
p1207
sI1228
Vmanager
p1208
sI1229
Vadd
p1209
sI1230
Vkey
p1210
sI1231
Vcheck
p1211
sI1232
Vbreak
p1212
sI1233
Vsources
p1213
sI1234
Vactive
p1214
sI1235
Vbattle
p1215
sI1236
Vproduct
p1216
sI1237
Vfixed
p1217
sI1238
Vspoke
p1218
sI1239
Vpossibility
p1219
sI1240
Vtouch
p1220
sI1241
Vfacts
p1221
sI1242
Vcompanies
p1222
sI1243
Voperating
p1223
sI1244
Vunits
p1224
sI1245
Vcarefully
p1225
sI1246
Vbright
p1226
sI1247
Vfinished
p1227
sI1248
Vassistance
p1228
sI1249
Vmary
p1229
sI1250
Vloss
p1230
sI1251
Vfinancial
p1231
sI1252
Vcitizens
p1232
sI1253
Ve.
p1233
sI1254
Vseeing
p1234
sI1255
Vdied
p1235
sI1256
Vsignificant
p1236
sI1257
Vphilosophy
p1237
sI1258
Vrequire
p1238
sI1259
Vprevious
p1239
sI1260
Vallowed
p1240
sI1261
Vinches
p1241
sI1262
Vtakes
p1242
sI1263
Vpatient
p1243
sI1264
Vrose
p1244
sI1265
Vworkers
p1245
sI1266
Vscientific
p1246
sI1267
Vbuild
p1247
sI1268
Votherwise
p1248
sI1269
Vmusical
p1249
sI1270
Vconcept
p1250
sI1271
Vshape
p1251
sI1272
Vvariety
p1252
sI1273
Vstations
p1253
sI1274
Vdistribution
p1254
sI1275
Vpost
p1255
sI1276
Vgerman
p1256
sI1277
Vrules
p1257
sI1278
Vrelatively
p1258
sI1279
Vstated
p1259
sI1280
Vcapital
p1260
sI1281
Vmarked
p1261
sI1282
Vcaptain
p1262
sI1283
Vclasses
p1263
sI1284
Vcircumstances
p1264
sI1285
Vaffairs
p1265
sI1286
Vbegin
p1266
sI1287
Vlearn
p1267
sI1288
Vbroad
p1268
sI1289
Vproposed
p1269
sI1290
Vsex
p1270
sI1291
Vappears
p1271
sI1292
Vimpossible
p1272
sI1293
Vnamed
p1273
sI1294
Vaware
p1274
sI1295
Vw.
p1275
sI1296
Vremains
p1276
sI1297
Vstrange
p1277
sI1298
Vcatholic
p1278
sI1299
Vreports
p1279
sI1300
Voperations
p1280
sI1301
Vcollection
p1281
sI1302
Vinterests
p1282
sI1303
Vhouses
p1283
sI1304
Vship
p1284
sI1305
Vopening
p1285
sI1306
Vteam
p1286
sI1307
Vprevent
p1287
sI1308
Vwinter
p1288
sI1309
Vsight
p1289
sI1310
Vspread
p1290
sI1311
Vspeed
p1291
sI1312
Vrobert
p1292
sI1313
Vgovernor
p1293
sI1314
Voffered
p1294
sI1315
Vrequirements
p1295
sI1316
Vbank
p1296
sI1317
Vofficers
p1297
sI1318
Vregular
p1298
sI1319
Vcapacity
p1299
sI1320
Vslightly
p1300
sI1321
Vmark
p1301
sI1322
Vyesterday
p1302
sI1323
Vremembered
p1303
sI1324
Vhenry
p1304
sI1325
Vproduce
p1305
sI1326
Vpoems
p1306
sI1327
Vinteresting
p1307
sI1328
Vcrisis
p1308
sI1329
Vinstance
p1309
sI1330
Vfresh
p1310
sI1331
Vdrink
p1311
sI1332
Vpresented
p1312
sI1333
V25
p1313
sI1334
Vtrain
p1314
sI1335
Vbar
p1315
sI1336
Vyouth
p1316
sI1337
Vopposite
p1317
sI1338
Vwatched
p1318
sI1339
Vsubjects
p1319
sI1340
Vgermany
p1320
sI1341
Vlives
p1321
sI1342
Vapartment
p1322
sI1343
Vagreed
p1323
sI1344
Vimmediate
p1324
sI1345
Vindex
p1325
sI1346
Vnine
p1326
sI1347
Vprovides
p1327
sI1348
Vcreated
p1328
sI1349
Vneck
p1329
sI1350
Vwatch
p1330
sI1351
Vessential
p1331
sI1352
Vforced
p1332
sI1353
Vevent
p1333
sI1354
Vcells
p1334
sI1355
Vcampaign
p1335
sI1356
Vfile
p1336
sI1357
Vtrip
p1337
sI1358
Vteacher
p1338
sI1359
Vexplained
p1339
sI1360
Vindicate
p1340
sI1361
Vsession
p1341
sI1362
Vlady
p1342
sI1363
Vfully
p1343
sI1364
Vrussian
p1344
sI1365
Vrecognized
p1345
sI1366
Vtwenty
p1346
sI1367
Vprovidence
p1347
sI1368
Vgray
p1348
sI1369
Vfeatures
p1349
sI1370
Voffer
p1350
sI1371
Vmaximum
p1351
sI1372
Vstudied
p1352
sI1373
Vexpression
p1353
sI1374
Veconomy
p1354
sI1375
Vdesire
p1355
sI1376
Vprocedure
p1356
sI1377
Vterm
p1357
sI1378
Vreduced
p1358
sI1379
Vsam
p1359
sI1380
Vatmosphere
p1360
sI1381
Vreality
p1361
sI1382
Vmentioned
p1362
sI1383
Vdifferences
p1363
sI1384
Vseparate
p1364
sI1385
Vcoffee
p1365
sI1386
Vtone
p1366
sI1387
Vliterary
p1367
sI1388
Vbeside
p1368
sI1389
Vtraditional
p1369
sI1390
Vfavor
p1370
sI1391
Vfair
p1371
sI1392
Vsecret
p1372
sI1393
V-
sI1394
Vmission
p1373
sI1395
Vfast
p1374
sI1396
Vpicked
p1375
sI1397
Venter
p1376
sI1398
Vsmaller
p1377
sI1399
Vlooks
p1378
sI1400
Vedge
p1379
sI1401
Vaddress
p1380
sI1402
Veditor
p1381
sI1403
Vanode
p1382
sI1404
Vlaid
p1383
sI1405
Velection
p1384
sI1406
Vbelieved
p1385
sI1407
Vrights
p1386
sI1408
Vmodel
p1387
sI1409
Vvocational
p1388
sI1410
Vt
sI1411
V100
p1389
sI1412
Vjudge
p1390
sI1413
Vtitle
p1391
sI1414
Vpermit
p1392
sI1415
Vresponse
p1393
sI1416
Vsolid
p1394
sI1417
Vfollows
p1395
sI1418
Vformed
p1396
sI1419
Vknife
p1397
sI1420
Vhearing
p1398
sI1421
Vnice
p1399
sI1422
Vquiet
p1400
sI1423
Vb.
p1401
sI1424
Vp
sI1425
Vbuildings
p1402
sI1426
Vwatching
p1403
sI1427
Vregion
p1404
sI1428
Vreceive
p1405
sI1429
Vbottle
p1406
sI1430
Vdifficulty
p1407
sI1431
Vpresence
p1408
sI1432
Vmemory
p1409
sI1433
Vtelephone
p1410
sI1434
Vfit
p1411
sI1435
Vjr.
p1412
sI1436
Vround
p1413
sI1437
Vvote
p1414
sI1438
Vofficial
p1415
sI1439
Vkilled
p1416
sI1440
Vjunior
p1417
sI1441
Vvirginia
p1418
sI1442
Vcamp
p1419
sI1443
Vplanned
p1420
sI1444
Vexpressed
p1421
sI1445
Vdog
p1422
sI1446
Vrock
p1423
sI1447
Vpersonnel
p1424
sI1448
Vmurder
p1425
sI1449
Vstayed
p1426
sI1450
Vturning
p1427
sI1451
Vfrance
p1428
sI1452
Vtreated
p1429
sI1453
Vremoved
p1430
sI1454
Vrich
p1431
sI1455
Vnovember
p1432
sI1456
Vnobody
p1433
sI1457
Vgain
p1434
sI1458
Vberlin
p1435
sI1459
Vselected
p1436
sI1460
Vstandards
p1437
sI1461
Vfourth
p1438
sI1462
Vstore
p1439
sI1463
Vability
p1440
sI1464
Vincreasing
p1441
sI1465
Vpositive
p1442
sI1466
Vcontrast
p1443
sI1467
Vfailed
p1444
sI1468
Vjewish
p1445
sI1469
Vsend
p1446
sI1470
Vframe
p1447
sI1471
Vpointed
p1448
sI1472
Vfaculty
p1449
sI1473
Vtwice
p1450
sI1474
Vobserved
p1451
sI1475
Vclaims
p1452
sI1476
Vinterior
p1453
sI1477
Vleader
p1454
sI1478
Vpulled
p1455
sI1479
Vindividuals
p1456
sI1480
Vdiscovered
p1457
sI1481
Vmembership
p1458
sI1482
Vnevertheless
p1459
sI1483
Vbrief
p1460
sI1484
Vwriters
p1461
sI1485
Vadvantage
p1462
sI1486
Vchapter
p1463
sI1487
Vwriter
p1464
sI1488
Vlouis
p1465
sI1489
Vrule
p1466
sI1490
Vpowers
p1467
sI1491
Vdie
p1468
sI1492
Vbrother
p1469
sI1493
Vvalley
p1470
sI1494
Vmaster
p1471
sI1495
Vwants
p1472
sI1496
Vresources
p1473
sI1497
Vrussia
p1474
sI1498
Vsomehow
p1475
sI1499
Vdetail
p1476
sI1500
Vplatform
p1477
sI1501
Vhill
p1478
sI1502
Vvillage
p1479
sI1503
Vwine
p1480
sI1504
Vaccept
p1481
sI1505
Vallow
p1482
sI1506
Vcommand
p1483
sI1507
Vordinary
p1484
sI1508
Vevil
p1485
sI1509
Vbroke
p1486
sI1510
Vfields
p1487
sI1511
Vlegal
p1488
sI1512
Vfighting
p1489
sI1513
Vmorgan
p1490
sI1514
Vdaughter
p1491
sI1515
Vitems
p1492
sI1516
Vplus
p1493
sI1517
Vboat
p1494
sI1518
Vfamiliar
p1495
sI1519
Vincreases
p1496
sI1520
Vupper
p1497
sI1521
Vassumed
p1498
sI1522
Vjones
p1499
sI1523
Veverybody
p1500
sI1524
Vsharp
p1501
sI1525
Vphase
p1502
sI1526
Vfaces
p1503
sI1527
Vcompared
p1504
sI1528
Vapproximately
p1505
sI1529
Vhistorical
p1506
sI1530
Vsmiled
p1507
sI1531
Vconstant
p1508
sI1532
Vapril
p1509
sI1533
Vfig.
p1510
sI1534
Vresponsible
p1511
sI1535
Vforth
p1512
sI1536
Vdu
p1513
sI1537
Vmercer
p1514
sI1538
Vh.
p1515
sI1539
Vcolumn
p1516
sI1540
Vfactor
p1517
sI1541
Vchosen
p1518
sI1542
Vproved
p1519
sI1543
Vunity
p1520
sI1544
Vuniverse
p1521
sI1545
Vbeauty
p1522
sI1546
Vrichard
p1523
sI1547
Vcarrying
p1524
sI1548
Vprinciples
p1525
sI1549
Veducational
p1526
sI1550
Vdogs
p1527
sI1551
Vdrawn
p1528
sI1552
Vfoot
p1529
sI1553
Vbox
p1530
sI1554
Vwaited
p1531
sI1555
Vcommunism
p1532
sI1556
Vindependence
p1533
sI1557
Vdust
p1534
sI1558
Vnaturally
p1535
sI1559
Vrevolution
p1536
sI1560
Vrome
p1537
sI1561
Vsections
p1538
sI1562
Vshelter
p1539
sI1563
Vwalls
p1540
sI1564
Vbuy
p1541
sI1565
Vexchange
p1542
sI1566
Vsan
p1543
sI1567
Vindependent
p1544
sI1568
Vdanger
p1545
sI1569
Vaircraft
p1546
sI1570
Vrain
p1547
sI1571
Vcalls
p1548
sI1572
Vsong
p1549
sI1573
Vchina
p1550
sI1574
Vconnection
p1551
sI1575
Vrealized
p1552
sI1576
Vrealize
p1553
sI1577
Vlet's
p1554
sI1578
Vleague
p1555
sI1579
Vlips
p1556
sI1580
Vordered
p1557
sI1581
Vsettled
p1558
sI1582
Vsweet
p1559
sI1583
Vweather
p1560
sI1584
Vliberal
p1561
sI1585
Vlevels
p1562
sI1586
Vtexas
p1563
sI1587
Vfashion
p1564
sI1588
Vteachers
p1565
sI1589
Vpolitics
p1566
sI1590
Vwilling
p1567
sI1591
Vancient
p1568
sI1592
Vcompleted
p1569
sI1593
Vseek
p1570
sI1594
Vclean
p1571
sI1595
Vtraffic
p1572
sI1596
Vprotection
p1573
sI1597
Velectronic
p1574
sI1598
Vpictures
p1575
sI1599
Vapplication
p1576
sI1600
Vminimum
p1577
sI1601
Vought
p1578
sI1602
Vexcellent
p1579
sI1603
Vsigns
p1580
sI1604
Vhorses
p1581
sI1605
Velectric
p1582
sI1606
Vleading
p1583
sI1607
Vactions
p1584
sI1608
Vanimal
p1585
sI1609
Vfamilies
p1586
sI1610
Varticle
p1587
sI1611
Vwon
p1588
sI1612
Vshe'd
p1589
sI1613
Vdrew
p1590
sI1614
Vstarting
p1591
sI1615
Vflow
p1592
sI1616
Vpolicies
p1593
sI1617
Vfrank
p1594
sI1618
Vfifty
p1595
sI1619
Vdry
p1596
sI1620
Vlargely
p1597
sI1621
Vcharacteristic
p1598
sI1622
Vkhrushchev
p1599
sI1623
Vstatements
p1600
sI1624
Vprojects
p1601
sI1625
Vappropriate
p1602
sI1626
Vmonday
p1603
sI1627
Vemotional
p1604
sI1628
Vinitial
p1605
sI1629
Vpractical
p1606
sI1630
Vdirected
p1607
sI1631
Vbeat
p1608
sI1632
Vquick
p1609
sI1633
Vstands
p1610
sI1634
Vwonder
p1611
sI1635
Vsaturday
p1612
sI1636
Vflat
p1613
sI1637
Vlegs
p1614
sI1638
Vimpact
p1615
sI1639
Voccurred
p1616
sI1640
Vreference
p1617
sI1641
Vanswered
p1618
sI1642
Vestimated
p1619
sI1643
Vasking
p1620
sI1644
Vcommunication
p1621
sI1645
Vchairman
p1622
sI1646
Vjury
p1623
sI1647
Vends
p1624
sI1648
Vthick
p1625
sI1649
Vyou've
p1626
sI1650
Vwarm
p1627
sI1651
Vsit
p1628
sI1652
Vaside
p1629
sI1653
Vdress
p1630
sI1654
Vyourself
p1631
sI1655
Vcareer
p1632
sI1656
Vteaching
p1633
sI1657
Vpotential
p1634
sI1658
Vbackground
p1635
sI1659
Vparis
p1636
sI1660
Vchair
p1637
sI1661
Vdeclared
p1638
sI1662
Vcapable
p1639
sI1663
Vhonor
p1640
sI1664
Vscore
p1641
sI1665
Vbirth
p1642
sI1666
Vrelief
p1643
sI1667
Vclosely
p1644
sI1668
Vintellectual
p1645
sI1669
Vsubstantial
p1646
sI1670
Varts
p1647
sI1671
Vgross
p1648
sI1672
Vsearch
p1649
sI1673
Vmeasured
p1650
sI1674
Vissues
p1651
sI1675
Vexperiments
p1652
sI1676
Vcutting
p1653
sI1677
Vadequate
p1654
sI1678
Vpage
p1655
sI1679
Vemployees
p1656
sI1680
Vforest
p1657
sI1681
Vjuly
p1658
sI1682
Vgets
p1659
sI1683
Vfingers
p1660
sI1684
Vsignificance
p1661
sI1685
Vbesides
p1662
sI1686
Vproperties
p1663
sI1687
Vblock
p1664
sI1688
Vhanover
p1665
sI1689
Vplays
p1666
sI1690
Vourselves
p1667
sI1691
Vhelped
p1668
sI1692
Vphil
p1669
sI1693
Vattorney
p1670
sI1694
Vimagination
p1671
sI1695
Vnewspaper
p1672
sI1696
Vdiscussed
p1673
sI1697
Vthey're
p1674
sI1698
Vd.
p1675
sI1699
Vone's
p1676
sI1700
Vpassing
p1677
sI1701
Vescape
p1678
sI1702
Vdominant
p1679
sI1703
Vsupposed
p1680
sI1704
Vobjects
p1681
sI1705
Vhung
p1682
sI1706
Vjoin
p1683
sI1707
Vheadquarters
p1684
sI1708
Vobject
p1685
sI1709
Vjobs
p1686
sI1710
Vrapidly
p1687
sI1711
Vdesk
p1688
sI1712
Vwore
p1689
sI1713
Vholding
p1690
sI1714
Vtypical
p1691
sI1715
Vcell
p1692
sI1716
Vcalifornia
p1693
sI1717
Vsleep
p1694
sI1718
Vachievement
p1695
sI1719
Vreasonable
p1696
sI1720
Vgrew
p1697
sI1721
Vempty
p1698
sI1722
Vbodies
p1699
sI1723
Vprimarily
p1700
sI1724
Vtowards
p1701
sI1725
Vmaintenance
p1702
sI1726
Vlocated
p1703
sI1727
Vcontemporary
p1704
sI1728
Vlaos
p1705
sI1729
Vmatters
p1706
sI1730
Vspiritual
p1707
sI1731
Vaspects
p1708
sI1732
Vbelief
p1709
sI1733
Vsite
p1710
sI1734
Vmessage
p1711
sI1735
Vdream
p1712
sI1736
Vcredit
p1713
sI1737
Vexplain
p1714
sI1738
Vyards
p1715
sI1739
Vwe'll
p1716
sI1740
Vresolution
p1717
sI1741
Vno.
p1718
sI1742
Vtomorrow
p1719
sI1743
Vpowerful
p1720
sI1744
Vhighest
p1721
sI1745
Vdramatic
p1722
sI1746
Vcompetition
p1723
sI1747
Vrifle
p1724
sI1748
Vwind
p1725
sI1749
Vlocation
p1726
sI1750
Vjesus
p1727
sI1751
Vsignal
p1728
sI1752
Vexperiment
p1729
sI1753
Vparker
p1730
sI1754
Vassume
p1731
sI1755
Vgrow
p1732
sI1756
Vunusual
p1733
sI1757
Vbroken
p1734
sI1758
Vnarrow
p1735
sI1759
Vsufficient
p1736
sI1760
Vp.m.
p1737
sI1761
Vargument
p1738
sI1762
Vcontact
p1739
sI1763
Vappeal
p1740
sI1764
Vhappen
p1741
sI1765
Vshop
p1742
sI1766
Vtom
p1743
sI1767
Vbenefit
p1744
sI1768
Vfellow
p1745
sI1769
Vrelation
p1746
sI1770
Vdomestic
p1747
sI1771
Vkill
p1748
sI1772
Vbaby
p1749
sI1773
Vofficials
p1750
sI1774
Vlibrary
p1751
sI1775
Vguests
p1752
sI1776
Vsave
p1753
sI1777
Vspeaking
p1754
sI1778
Vrising
p1755
sI1779
V9
sI1780
Vfund
p1756
sI1781
Vrecognize
p1757
sI1782
Vdecember
p1758
sI1783
Vgreatly
p1759
sI1784
Vwilson
p1760
sI1785
Vbillion
p1761
sI1786
Vpleasure
p1762
sI1787
Vassignment
p1763
sI1788
Varrived
p1764
sI1789
Vreduce
p1765
sI1790
Vinternal
p1766
sI1791
Vsenate
p1767
sI1792
Vu.
p1768
sI1793
Vdrove
p1769
sI1794
Vequally
p1770
sI1795
Vstruggle
p1771
sI1796
Vm.
p1772
sI1797
V11
p1773
sI1798
Vcool
p1774
sI1799
Vcareful
p1775
sI1800
Vachieved
p1776
sI1801
Vagencies
p1777
sI1802
Vconcerning
p1778
sI1803
Vportion
p1779
sI1804
Vplease
p1780
sI1805
Vextreme
p1781
sI1806
Vhomes
p1782
sI1807
Vsets
p1783
sI1808
Vtravel
p1784
sI1809
Vcourses
p1785
sI1810
Vshowing
p1786
sI1811
Vfriendly
p1787
sI1812
Vshore
p1788
sI1813
Vpossibly
p1789
sI1814
Vimagine
p1790
sI1815
Vgreek
p1791
sI1816
Vprices
p1792
sI1817
Vtests
p1793
sI1818
Vvictory
p1794
sI1819
Vweapons
p1795
sI1820
Vacting
p1796
sI1821
Vwe're
p1797
sI1822
Vassociated
p1798
sI1823
Vr.
p1799
sI1824
Veuropean
p1800
sI1825
Vbeach
p1801
sI1826
Vorganizations
p1802
sI1827
Vcommercial
p1803
sI1828
Vprocedures
p1804
sI1829
Veat
p1805
sI1830
Vvast
p1806
sI1831
Vcoast
p1807
sI1832
Vkid
p1808
sI1833
Vfeelings
p1809
sI1834
Vshoulder
p1810
sI1835
Vspeech
p1811
sI1836
Vmetal
p1812
sI1837
V50
p1813
sI1838
Videal
p1814
sI1839
Vduty
p1815
sI1840
Vminister
p1816
sI1841
Vboston
p1817
sI1842
Vgovernments
p1818
sI1843
Vcontinuing
p1819
sI1844
Vsoft
p1820
sI1845
Vcloser
p1821
sI1846
Vended
p1822
sI1847
Vstreets
p1823
sI1848
Vtask
p1824
sI1849
Vsetting
p1825
sI1850
Vcontract
p1826
sI1851
Vfriday
p1827
sI1852
Vmachinery
p1828
sI1853
Vrefused
p1829
sI1854
Vheavily
p1830
sI1855
Vcontained
p1831
sI1856
Vkeeping
p1832
sI1857
Vgarden
p1833
sI1858
Vsomewhere
p1834
sI1859
Vmoon
p1835
sI1860
Vgoal
p1836
sI1861
Vchemical
p1837
sI1862
Varmed
p1838
sI1863
Vnose
p1839
sI1864
Vstared
p1840
sI1865
Vorchestra
p1841
sI1866
Vonto
p1842
sI1867
Vslow
p1843
sI1868
Vexisting
p1844
sI1869
Vlearning
p1845
sI1870
Vcircle
p1846
sI1871
Vmaintain
p1847
sI1872
Vtechnique
p1848
sI1873
Vscale
p1849
sI1874
Vtext
p1850
sI1875
Vfat
p1851
sI1876
Vbudget
p1852
sI1877
Vsongs
p1853
sI1878
Vdrop
p1854
sI1879
Vroof
p1855
sI1880
Vsexual
p1856
sI1881
Vtaste
p1857
sI1882
Vconclusion
p1858
sI1883
Vexist
p1859
sI1884
Vparties
p1860
sI1885
Vhousing
p1861
sI1886
Vrepeated
p1862
sI1887
Vstruck
p1863
sI1888
Vf.
p1864
sI1889
Vuses
p1865
sI1890
Vproviding
p1866
sI1891
Vnovel
p1867
sI1892
Vsolution
p1868
sI1893
Vthirty
p1869
sI1894
Vtension
p1870
sI1895
Vtree
p1871
sI1896
Vpainting
p1872
sI1897
Vstories
p1873
sI1898
Vmine
p1874
sI1899
Vadvance
p1875
sI1900
Vbible
p1876
sI1901
Vultimate
p1877
sI1902
Vsnow
p1878
sI1903
Vnegroes
p1879
sI1904
Vplants
p1880
sI1905
Vformula
p1881
sI1906
Vnotice
p1882
sI1907
Vlie
p1883
sI1908
Vsensitive
p1884
sI1909
Vheaded
p1885
sI1910
Vjudgment
p1886
sI1911
Vfinds
p1887
sI1912
Vcauses
p1888
sI1913
Vperfect
p1889
sI1914
Vsafe
p1890
sI1915
Vculture
p1891
sI1916
Vtuesday
p1892
sI1917
Vlose
p1893
sI1918
Vpreviously
p1894
sI1919
Vtalked
p1895
sI1920
Voccasion
p1896
sI1921
Vsomebody
p1897
sI1922
Vhence
p1898
sI1923
Vgrounds
p1899
sI1924
Vfairly
p1900
sI1925
Vunique
p1901
sI1926
Vleg
p1902
sI1927
Vavoid
p1903
sI1928
Vwondered
p1904
sI1929
Vliked
p1905
sI1930
Vetc.
p1906
sI1931
Vestablish
p1907
sI1932
Vemphasis
p1908
sI1933
Vp.
p1909
sI1934
Vhole
p1910
sI1935
Vpale
p1911
sI1936
Vorders
p1912
sI1937
Vexercise
p1913
sI1938
Vminor
p1914
sI1939
Vroman
p1915
sI1940
Vbusy
p1916
sI1941
Vcommerce
p1917
sI1942
Vstone
p1918
sI1943
Vsmile
p1919
sI1944
Vsurprised
p1920
sI1945
Vanimals
p1921
sI1946
Vroads
p1922
sI1947
Vindia
p1923
sI1948
Vunderstood
p1924
sI1949
Vuseful
p1925
sI1950
Vcritical
p1926
sI1951
Vneighborhood
p1927
sI1952
Vdallas
p1928
sI1953
Vrailroad
p1929
sI1954
Vremove
p1930
sI1955
Vsky
p1931
sI1956
Vreplied
p1932
sI1957
Vdetails
p1933
sI1958
Vlewis
p1934
sI1959
Vcombination
p1935
sI1960
Vsample
p1936
sI1961
Vprofessor
p1937
sI1962
Vapparent
p1938
sI1963
Vspot
p1939
sI1964
Ventrance
p1940
sI1965
Vbirds
p1941
sI1966
Vcompletion
p1942
sI1967
Vrequires
p1943
sI1968
Vcongo
p1944
sI1969
Vapart
p1945
sI1970
Venjoyed
p1946
sI1971
Vbecoming
p1947
sI1972
Vtruly
p1948
sI1973
Vinformed
p1949
sI1974
Vprocesses
p1950
sI1975
Vshook
p1951
sI1976
Vartist
p1952
sI1977
Vgoods
p1953
sI1978
Vpermitted
p1954
sI1979
Vtruck
p1955
sI1980
Vbeneath
p1956
sI1981
Vflowers
p1957
sI1982
Vcharged
p1958
sI1983
Vbay
p1959
sI1984
Vbear
p1960
sI1985
Vappearance
p1961
sI1986
Valive
p1962
sI1987
Vuncle
p1963
sI1988
Vbaseball
p1964
sI1989
Vmajority
p1965
sI1990
Vnotes
p1966
sI1991
Vdictionary
p1967
sI1992
Vafraid
p1968
sI1993
Vwage
p1969
sI1994
Vacademic
p1970
sI1995
Vhat
p1971
sI1996
Vvision
p1972
sI1997
Vfifteen
p1973
sI1998
Vconfidence
p1974
sI1999
Vwheel
p1975
sI2000
Vintensity
p1976
sI2001
Vspite
p1977
sI2002
Vvital
p1978
sI2003
Vbought
p1979
sI2004
Vorganized
p1980
sI2005
Vgranted
p1981
sI2006
Vchinese
p1982
sI2007
Vpure
p1983
sI2008
Vevident
p1984
sI2009
Vregarded
p1985
sI2010
Vl.
p1986
sI2011
Vseptember
p1987
sI2012
Vjoined
p1988
sI2013
Vguess
p1989
sI2014
Ventitled
p1990
sI2015
V14
p1991
sI2016
Vrepresented
p1992
sI2017
Vdraw
p1993
sI2018
Vsoldiers
p1994
sI2019
Vminds
p1995
sI2020
Vloved
p1996
sI2021
Vreview
p1997
sI2022
Vdouble
p1998
sI2023
Vpalmer
p1999
sI2024
Vmotor
p2000
sI2025
Vapply
p2001
sI2026
Vagency
p2002
sI2027
Vwild
p2003
sI2028
Vminute
p2004
sI2029
Vhuge
p2005
sI2030
Videntity
p2006
sI2031
Vruns
p2007
sI2032
Vbegins
p2008
sI2033
Vextended
p2009
sI2034
Vjoe
p2010
sI2035
Vwagon
p2011
sI2036
Vyellow
p2012
sI2037
Vtheme
p2013
sI2038
Vpick
p2014
sI2039
Vdemands
p2015
sI2040
Vfirms
p2016
sI2041
Vinner
p2017
sI2042
Vfort
p2018
sI2043
Vconduct
p2019
sI2044
Vpublication
p2020
sI2045
Vcross
p2021
sI2046
Vrooms
p2022
sI2047
Vproperly
p2023
sI2048
Vwin
p2024
sI2049
Vitem
p2025
sI2050
Vtall
p2026
sI2051
Vsounds
p2027
sI2052
Vconducted
p2028
sI2053
Vsought
p2029
sI2054
Vplenty
p2030
sI2055
Vgames
p2031
sI2056
Vcultural
p2032
sI2057
Vjoseph
p2033
sI2058
Vdivided
p2034
sI2059
Vimproved
p2035
sI2060
Vdevice
p2036
sI2061
Vmarine
p2037
sI2062
Vworry
p2038
sI2063
Vmartin
p2039
sI2064
Vartists
p2040
sI2065
V18
p2041
sI2066
Vexecutive
p2042
sI2067
Vmotion
p2043
sI2068
Vwood
p2044
sI2069
Vcomponents
p2045
sI2070
Vbritain
p2046
sI2071
Vgeneration
p2047
sI2072
Vwished
p2048
sI2073
Vmeasurements
p2049
sI2074
Vmachines
p2050
sI2075
Vpositions
p2051
sI2076
Vdear
p2052
sI2077
Vdescription
p2053
sI2078
Vseat
p2054
sI2079
Vdecisions
p2055
sI2080
Vphone
p2056
sI2081
Vattend
p2057
sI2082
Vrepublican
p2058
sI2083
Vrural
p2059
sI2084
Vsoil
p2060
sI2085
Vcreate
p2061
sI2086
Vputting
p2062
sI2087
Vwalking
p2063
sI2088
Vunable
p2064
sI2089
Vsupported
p2065
sI2090
Vinterpretation
p2066
sI2091
Vpreparation
p2067
sI2092
V16
p2068
sI2093
Vfaced
p2069
sI2094
Vsuggest
p2070
sI2095
Vsmith
p2071
sI2096
Vtrained
p2072
sI2097
Vthoughts
p2073
sI2098
Vjews
p2074
sI2099
Vforget
p2075
sI2100
Vlake
p2076
sI2101
Vrisk
p2077
sI2102
Vsymbol
p2078
sI2103
Vbreakfast
p2079
sI2104
Vcrowd
p2080
sI2105
Vwet
p2081
sI2106
Vabsence
p2082
sI2107
Vassigned
p2083
sI2108
Vaugust
p2084
sI2109
Vpayment
p2085
sI2110
Vdisease
p2086
sI2111
Vgrass
p2087
sI2112
Vversion
p2088
sI2113
Vlargest
p2089
sI2114
Vbreath
p2090
sI2115
Vwhat's
p2091
sI2116
Vpractices
p2092
sI2117
Vpushed
p2093
sI2118
Vdepth
p2094
sI2119
Vnegative
p2095
sI2120
Vtroops
p2096
sI2121
Vspend
p2097
sI2122
Vexamples
p2098
sI2123
Vslight
p2099
sI2124
Vvehicles
p2100
sI2125
Vwelfare
p2101
sI2126
Vhandle
p2102
sI2127
Vband
p2103
sI2128
Vprove
p2104
sI2129
Vjanuary
p2105
sI2130
Vloose
p2106
sI2131
Vwonderful
p2107
sI2132
Vexperienced
p2108
sI2133
Vexperiences
p2109
sI2134
Vadministrative
p2110
sI2135
Vhudson
p2111
sI2136
Vfinding
p2112
sI2137
Vsin
p2113
sI2138
Vbitter
p2114
sI2139
Vremarks
p2115
sI2140
Vpractically
p2116
sI2141
Vjapanese
p2117
sI2142
Vcontent
p2118
sI2143
Vchest
p2119
sI2144
Vdriving
p2120
sI2145
Vadvanced
p2121
sI2146
Vwindows
p2122
sI2147
Vpercent
p2123
sI2148
Vdozen
p2124
sI2149
Vsilence
p2125
sI2150
Vtelling
p2126
sI2151
Vintroduced
p2127
sI2152
Vcolors
p2128
sI2153
Vdetailed
p2129
sI2154
Vdeveloping
p2130
sI2155
Vtheater
p2131
sI2156
Vu.n.
p2132
sI2157
Valfred
p2133
sI2158
Vla
p2134
sI2159
Vgold
p2135
sI2160
Velement
p2136
sI2161
Vflesh
p2137
sI2162
Vconflict
p2138
sI2163
Vadvice
p2139
sI2164
Vtrust
p2140
sI2165
Vhero
p2141
sI2166
Vcenters
p2142
sI2167
Vindian
p2143
sI2168
Vestablishment
p2144
sI2169
Vbedroom
p2145
sI2170
Veventually
p2146
sI2171
Vcorrect
p2147
sI2172
Vcharacteristics
p2148
sI2173
Vcontrary
p2149
sI2174
Vraise
p2150
sI2175
Vdetective
p2151
sI2176
Vwidely
p2152
sI2177
Vpull
p2153
sI2178
Vguy
p2154
sI2179
Vconventional
p2155
sI2180
Vachieve
p2156
sI2181
Vshoulders
p2157
sI2182
Vfoods
p2158
sI2183
Vcousin
p2159
sI2184
Velections
p2160
sI2185
Vthroat
p2161
sI2186
Vestate
p2162
sI2187
Vsituations
p2163
sI2188
Vpapers
p2164
sI2189
Vwaves
p2165
sI2190
Vlisten
p2166
sI2191
Vlaughed
p2167
sI2192
Vagree
p2168
sI2193
Vdavid
p2169
sI2194
Vboats
p2170
sI2195
Vrear
p2171
sI2196
Vabroad
p2172
sI2197
Vapproval
p2173
sI2198
Vsurprise
p2174
sI2199
Vnodded
p2175
sI2200
Vbegun
p2176
sI2201
Varthur
p2177
sI2202
Vgradually
p2178
sI2203
Veasier
p2179
sI2204
Vinvestigation
p2180
sI2205
Voctober
p2181
sI2206
Vwarren
p2182
sI2207
Vplayer
p2183
sI2208
Vuniform
p2184
sI2209
Vlos
p2185
sI2210
Vprotestant
p2186
sI2211
Vnecessarily
p2187
sI2212
Vangle
p2188
sI2213
Vopportunities
p2189
sI2214
Vdevoted
p2190
sI2215
Vstages
p2191
sI2216
Vviews
p2192
sI2217
Vages
p2193
sI2218
Vsupreme
p2194
sI2219
Vstream
p2195
sI2220
Vsick
p2196
sI2221
Vwooden
p2197
sI2222
Vmotors
p2198
sI2223
Vextra
p2199
sI2224
Vassembly
p2200
sI2225
Vchain
p2201
sI2226
Vconviction
p2202
sI2227
Vtiny
p2203
sI2228
Vfemale
p2204
sI2229
Vexpense
p2205
sI2230
Vautomobile
p2206
sI2231
Vtowns
p2207
sI2232
Vmoments
p2208
sI2233
Vhills
p2209
sI2234
Vnoticed
p2210
sI2235
Vtaught
p2211
sI2236
Vpair
p2212
sI2237
Vworse
p2213
sI2238
Vissued
p2214
sI2239
Vdesired
p2215
sI2240
Vstrike
p2216
sI2241
Veisenhower
p2217
sI2242
Vbrilliant
p2218
sI2243
Vfundamental
p2219
sI2244
Vknowing
p2220
sI2245
Vd
sI2246
Vadvertising
p2221
sI2247
Vwelcome
p2222
sI2248
Vtelevision
p2223
sI2249
Vcourts
p2224
sI2250
Vfill
p2225
sI2251
Vextremely
p2226
sI2252
Vproud
p2227
sI2253
Vchildhood
p2228
sI2254
Vengine
p2229
sI2255
Vlatin
p2230
sI2256
Vphiladelphia
p2231
sI2257
Vmassachusetts
p2232
sI2258
Vefficiency
p2233
sI2259
Vinstitute
p2234
sI2260
Vmention
p2235
sI2261
Vconversation
p2236
sI2262
Vconvinced
p2237
sI2263
Vchoose
p2238
sI2264
Voperator
p2239
sI2265
Vrequest
p2240
sI2266
Vspeaker
p2241
sI2267
Vpayments
p2242
sI2268
Vleaves
p2243
sI2269
Vpassage
p2244
sI2270
Vimpressive
p2245
sI2271
Vtragedy
p2246
sI2272
Vacceptance
p2247
sI2273
Vcount
p2248
sI2274
Vdepends
p2249
sI2275
Vsilent
p2250
sI2276
Vpartly
p2251
sI2277
Vtill
p2252
sI2278
Vquietly
p2253
sI2279
Vconstitution
p2254
sI2280
Vmillions
p2255
sI2281
Vmeasures
p2256
sI2282
Vtendency
p2257
sI2283
Vincident
p2258
sI2284
Vfirmly
p2259
sI2285
V13
p2260
sI2286
Vsports
p2261
sI2287
Vholy
p2262
sI2288
Vcreative
p2263
sI2289
Vburning
p2264
sI2290
Vconsideration
p2265
sI2291
Vride
p2266
sI2292
Vemployed
p2267
sI2293
Vmilk
p2268
sI2294
Vhopes
p2269
sI2295
Vdriver
p2270
sI2296
Vtwelve
p2271
sI2297
Vgrand
p2272
sI2298
Vfunctions
p2273
sI2299
Vsorry
p2274
sI2300
Voperate
p2275
sI2301
Vroyal
p2276
sI2302
Voccasionally
p2277
sI2303
Vconcrete
p2278
sI2304
Vhearst
p2279
sI2305
Vco.
p2280
sI2306
Vmantle
p2281
sI2307
Vanger
p2282
sI2308
Vshe's
p2283
sI2309
Vmissile
p2284
sI2310
Vpink
p2285
sI2311
Vlimit
p2286
sI2312
Vintegration
p2287
sI2313
Vdrinking
p2288
sI2314
Vscreen
p2289
sI2315
Vcry
p2290
sI2316
Vformal
p2291
sI2317
Vsuit
p2292
sI2318
Vpersonality
p2293
sI2319
V1957
p2294
sI2320
Vprecisely
p2295
sI2321
Vdestroy
p2296
sI2322
V24
p2297
sI2323
Vliquid
p2298
sI2324
Vswung
p2299
sI2325
Vresistance
p2300
sI2326
Vtired
p2301
sI2327
Vrolled
p2302
sI2328
Vvia
p2303
sI2329
Vcomparison
p2304
sI2330
Vpoem
p2305
sI2331
Vmile
p2306
sI2332
Vmaintained
p2307
sI2333
Vhoped
p2308
sI2334
Vplain
p2309
sI2335
Vguard
p2310
sI2336
Vshooting
p2311
sI2337
Vcharlie
p2312
sI2338
Vattitudes
p2313
sI2339
Vintelligence
p2314
sI2340
Vengaged
p2315
sI2341
Vprior
p2316
sI2342
Vpatterns
p2317
sI2343
Vblind
p2318
sI2344
Vring
p2319
sI2345
Vsafety
p2320
sI2346
Vgrant
p2321
sI2347
Vfears
p2322
sI2348
Vlincoln
p2323
sI2349
Vconsidering
p2324
sI2350
Vperiods
p2325
sI2351
Vsupplies
p2326
sI2352
Vcongregation
p2327
sI2353
Vsold
p2328
sI2354
Vunknown
p2329
sI2355
Vemployment
p2330
sI2356
Vlights
p2331
sI2357
Vmanufacturers
p2332
sI2358
Vvacation
p2333
sI2359
Vsurely
p2334
sI2360
Vangeles
p2335
sI2361
Vexpansion
p2336
sI2362
Vluck
p2337
sI2363
Vskin
p2338
sI2364
Vessentially
p2339
sI2365
Vopera
p2340
sI2366
Vmodels
p2341
sI2367
Veverywhere
p2342
sI2368
Vrepresentative
p2343
sI2369
Vbonds
p2344
sI2370
Vdenied
p2345
sI2371
Vnorthern
p2346
sI2372
Vmoscow
p2347
sI2373
V21
p2348
sI2374
V23
p2349
sI2375
Vitalian
p2350
sI2376
Vexpenses
p2351
sI2377
Vcook
p2352
sI2378
Vremarkable
p2353
sI2379
Vnumerous
p2354
sI2380
Vbills
p2355
sI2381
Vinstrument
p2356
sI2382
Vstairs
p2357
sI2383
Vcuba
p2358
sI2384
Vmere
p2359
sI2385
Vhumor
p2360
sI2386
Vprovision
p2361
sI2387
Vhonest
p2362
sI2388
Vtestimony
p2363
sI2389
Vconcentration
p2364
sI2390
Vsinging
p2365
sI2391
Vpurchase
p2366
sI2392
Vwearing
p2367
sI2393
Vsoul
p2368
sI2394
Vmail
p2369
sI2395
Vmovements
p2370
sI2396
Vaspect
p2371
sI2397
Vboards
p2372
sI2398
Vdeny
p2373
sI2399
Vthousands
p2374
sI2400
Vencourage
p2375
sI2401
Vconscious
p2376
sI2402
Vseriously
p2377
sI2403
Vrecommended
p2378
sI2404
Vwright
p2379
sI2405
Vshares
p2380
sI2406
Vlosses
p2381
sI2407
Vwave
p2382
sI2408
Vliberty
p2383
sI2409
Vfiction
p2384
sI2410
Vdifficulties
p2385
sI2411
Vtrend
p2386
sI2412
Vauthor
p2387
sI2413
Vavenue
p2388
sI2414
Vflight
p2389
sI2415
Vprecision
p2390
sI2416
Vsuperior
p2391
sI2417
Vpanels
p2392
sI2418
V60
p2393
sI2419
Vcreation
p2394
sI2420
Vanyway
p2395
sI2421
Vchamber
p2396
sI2422
Vinsurance
p2397
sI2423
Vatomic
p2398
sI2424
Vengineering
p2399
sI2425
Vpocket
p2400
sI2426
Vcurious
p2401
sI2427
Vdecade
p2402
sI2428
Vaward
p2403
sI2429
V1954
p2404
sI2430
Vequivalent
p2405
sI2431
Vrelative
p2406
sI2432
Vdollar
p2407
sI2433
V22
p2408
sI2434
Vfought
p2409
sI2435
Vgeorgia
p2410
sI2436
Vartery
p2411
sI2437
Vsalt
p2412
sI2438
Vbond
p2413
sI2439
Vloan
p2414
sI2440
Vshut
p2415
sI2441
Vlegislation
p2416
sI2442
Vcenturies
p2417
sI2443
Velectrical
p2418
sI2444
Vweakness
p2419
sI2445
Vthrew
p2420
sI2446
Vdoctrine
p2421
sI2447
Vq
sI2448
Vviolence
p2422
sI2449
Vain't
p2423
sI2450
Vnative
p2424
sI2451
Videntified
p2425
sI2452
Vdangerous
p2426
sI2453
Vpercentage
p2427
sI2454
Vopposition
p2428
sI2455
Vballet
p2429
sI2456
Vintended
p2430
sI2457
Vriding
p2431
sI2458
Vtaxes
p2432
sI2459
Vadopted
p2433
sI2460
Vfeels
p2434
sI2461
Vuniversal
p2435
sI2462
Vafrica
p2436
sI2463
Vcup
p2437
sI2464
Vapproached
p2438
sI2465
Vdiscovery
p2439
sI2466
Vcast
p2440
sI2467
Vsum
p2441
sI2468
Vpromise
p2442
sI2469
Vsteel
p2443
sI2470
Vresidential
p2444
sI2471
Vdiameter
p2445
sI2472
Vwatson
p2446
sI2473
Vmold
p2447
sI2474
Vsheet
p2448
sI2475
Vreferred
p2449
sI2476
Vlucy
p2450
sI2477
Vinterference
p2451
sI2478
Vice
p2452
sI2479
Vmedium
p2453
sI2480
Vincludes
p2454
sI2481
Vcurve
p2455
sI2482
Vbrain
p2456
sI2483
Vangry
p2457
sI2484
Vexpenditures
p2458
sI2485
Velsewhere
p2459
sI2486
Vpromised
p2460
sI2487
Vmounted
p2461
sI2488
Vvaluable
p2462
sI2489
Valexander
p2463
sI2490
Vmeat
p2464
sI2491
Vdepend
p2465
sI2492
Vcontaining
p2466
sI2493
Voffices
p2467
sI2494
Voffers
p2468
sI2495
Vpennsylvania
p2469
sI2496
Vprime
p2470
sI2497
Vload
p2471
sI2498
Vedward
p2472
sI2499
Vtarget
p2473
sI2500
Vnearby
p2474
sI2501
Vcharges
p2475
sI2502
Vfebruary
p2476
sI2503
Vterrible
p2477
sI2504
Vimpression
p2478
sI2505
Vcontain
p2479
sI2506
Vqualities
p2480
sI2507
Vcalling
p2481
sI2508
Verrors
p2482
sI2509
Vclimbed
p2483
sI2510
Vaccomplished
p2484
sI2511
Vconsiderably
p2485
sI2512
Vsnake
p2486
sI2513
Vrecognition
p2487
sI2514
Vhans
p2488
sI2515
Vamounts
p2489
sI2516
Vlovely
p2490
sI2517
Vshoes
p2491
sI2518
Varranged
p2492
sI2519
Vwashing
p2493
sI2520
Vexpensive
p2494
sI2521
Vadmitted
p2495
sI2522
Vpilot
p2496
sI2523
Vlisted
p2497
sI2524
Vwisdom
p2498
sI2525
Vopinions
p2499
sI2526
Vmanchester
p2500
sI2527
Vmostly
p2501
sI2528
Vpounds
p2502
sI2529
Vanswers
p2503
sI2530
Vcontinuous
p2504
sI2531
Vseeking
p2505
sI2532
Vmama
p2506
sI2533
Vfun
p2507
sI2534
Vacres
p2508
sI2535
Venjoy
p2509
sI2536
Vhundreds
p2510
sI2537
Vpath
p2511
sI2538
Vconfusion
p2512
sI2539
Vorigin
p2513
sI2540
Vchanging
p2514
sI2541
Vwarning
p2515
sI2542
Vadam
p2516
sI2543
Vspirits
p2517
sI2544
Vsuffering
p2518
sI2545
Vcontribute
p2519
sI2546
Vthickness
p2520
sI2547
Vcollected
p2521
sI2548
Vconfused
p2522
sI2549
Vtables
p2523
sI2550
Vhelping
p2524
sI2551
Vvolumes
p2525
sI2552
Vsale
p2526
sI2553
Vodd
p2527
sI2554
Voxygen
p2528
sI2555
Vslaves
p2529
sI2556
Vmobile
p2530
sI2557
Vburden
p2531
sI2558
Vasia
p2532
sI2559
Vlies
p2533
sI2560
Vagent
p2534
sI2561
Vdevelopments
p2535
sI2562
Vextensive
p2536
sI2563
Vyounger
p2537
sI2564
Vdriven
p2538
sI2565
Vbrush
p2539
sI2566
Vfired
p2540
sI2567
Vtechnology
p2541
sI2568
Vinvestment
p2542
sI2569
Vseparated
p2543
sI2570
Voccur
p2544
sI2571
Vpace
p2545
sI2572
Vtend
p2546
sI2573
Vreaching
p2547
sI2574
Vflying
p2548
sI2575
Vdealing
p2549
sI2576
Vtour
p2550
sI2577
Vcomfort
p2551
sI2578
Vexplanation
p2552
sI2579
Vconcerns
p2553
sI2580
Vconsists
p2554
sI2581
Videntification
p2555
sI2582
Vrepublic
p2556
sI2583
Vbelieves
p2557
sI2584
Vheads
p2558
sI2585
Vrecorded
p2559
sI2586
Vdirt
p2560
sI2587
Vsalary
p2561
sI2588
Vroute
p2562
sI2589
Vtransportation
p2563
sI2590
Vlawyer
p2564
sI2591
Vcoat
p2565
sI2592
Vliquor
p2566
sI2593
Vcore
p2567
sI2594
Vyear's
p2568
sI2595
Vmountains
p2569
sI2596
Vships
p2570
sI2597
Vrapid
p2571
sI2598
Vresulting
p2572
sI2599
Vwarfare
p2573
sI2600
Vlifted
p2574
sI2601
Vreader
p2575
sI2602
Vreadily
p2576
sI2603
Vrecreation
p2577
sI2604
Vinsisted
p2578
sI2605
Venvironment
p2579
sI2606
Vcloth
p2580
sI2607
Vi.e.
p2581
sI2608
Vbureau
p2582
sI2609
Vsaved
p2583
sI2610
Viron
p2584
sI2611
Vmarketing
p2585
sI2612
Vwhenever
p2586
sI2613
Vexternal
p2587
sI2614
Vheaven
p2588
sI2615
Vdarkness
p2589
sI2616
Vemotions
p2590
sI2617
Vgrown
p2591
sI2618
Vswitch
p2592
sI2619
Vmental
p2593
sI2620
Vdancing
p2594
sI2621
Vdrama
p2595
sI2622
Vraw
p2596
sI2623
Vcatch
p2597
sI2624
Vporch
p2598
sI2625
Vgolden
p2599
sI2626
Vlots
p2600
sI2627
Vreactions
p2601
sI2628
Vexcess
p2602
sI2629
Vappointed
p2603
sI2630
Vincreasingly
p2604
sI2631
Vrachel
p2605
sI2632
Vadams
p2606
sI2633
Vurban
p2607
sI2634
Vexpress
p2608
sI2635
Vvaried
p2609
sI2636
Vholds
p2610
sI2637
Vhardy
p2611
sI2638
Vregional
p2612
sI2639
Vparticles
p2613
sI2640
Vsufficiently
p2614
sI2641
Vseeds
p2615
sI2642
Vsmooth
p2616
sI2643
Veditorial
p2617
sI2644
Vreflected
p2618
sI2645
Vcivilization
p2619
sI2646
Vg.
p2620
sI2647
Vdistinguished
p2621
sI2648
Vwages
p2622
sI2649
Vcomment
p2623
sI2650
Vweapon
p2624
sI2651
Vhate
p2625
sI2652
Vpride
p2626
sI2653
Vvarying
p2627
sI2654
Vpossibilities
p2628
sI2655
Vguns
p2629
sI2656
Vanybody
p2630
sI2657
Vlinda
p2631
sI2658
Vdemanded
p2632
sI2659
Vbound
p2633
sI2660
Vthrow
p2634
sI2661
Vcrossed
p2635
sI2662
Vjournal
p2636
sI2663
Vsuffered
p2637
sI2664
Vlong-range
p2638
sI2665
Vreplaced
p2639
sI2666
Vmuscle
p2640
sI2667
Vengineer
p2641
sI2668
Vcooling
p2642
sI2669
Vunlike
p2643
sI2670
Vobtain
p2644
sI2671
Vnineteenth
p2645
sI2672
Vtouched
p2646
sI2673
Vease
p2647
sI2674
Vprison
p2648
sI2675
Vwire
p2649
sI2676
Vskill
p2650
sI2677
Vanxiety
p2651
sI2678
Vbag
p2652
sI2679
Vdistinct
p2653
sI2680
Vwaters
p2654
sI2681
Vexists
p2655
sI2682
Vreply
p2656
sI2683
Vthreat
p2657
sI2684
Vreduction
p2658
sI2685
Vanne
p2659
sI2686
Vopposed
p2660
sI2687
Vsell
p2661
sI2688
Vvisited
p2662
sI2689
Vtissue
p2663
sI2690
Vparticipation
p2664
sI2691
Vo'clock
p2665
sI2692
Vsteady
p2666
sI2693
Vlimits
p2667
sI2694
Vdisplay
p2668
sI2695
Vrestaurant
p2669
sI2696
Vpleased
p2670
sI2697
Vpike
p2671
sI2698
Vrare
p2672
sI2699
Vhenrietta
p2673
sI2700
Vfunny
p2674
sI2701
Vfrancisco
p2675
sI2702
Vsmoke
p2676
sI2703
Vrarely
p2677
sI2704
V'em
p2678
sI2705
Vdescribe
p2679
sI2706
Vstorage
p2680
sI2707
Vdowntown
p2681
sI2708
Vdistinction
p2682
sI2709
Vremoval
p2683
sI2710
Vfed
p2684
sI2711
Vsocieties
p2685
sI2712
Vpsychological
p2686
sI2713
Vconstantly
p2687
sI2714
Vrepresentatives
p2688
sI2715
Vwrites
p2689
sI2716
Vbrothers
p2690
sI2717
Vcarl
p2691
sI2718
Vremaining
p2692
sI2719
Vkate
p2693
sI2720
Vcomparable
p2694
sI2721
Vseed
p2695
sI2722
Vshift
p2696
sI2723
Vassumption
p2697
sI2724
Vproposal
p2698
sI2725
Vmatch
p2699
sI2726
Vwhereas
p2700
sI2727
Vcommunities
p2701
sI2728
Vvice
p2702
sI2729
Vmusicians
p2703
sI2730
Vtoday's
p2704
sI2731
Vfavorite
p2705
sI2732
Vvirtually
p2706
sI2733
Vinvolves
p2707
sI2734
Vspending
p2708
sI2735
Vcontinues
p2709
sI2736
Vrough
p2710
sI2737
Vbread
p2711
sI2738
Vteach
p2712
sI2739
Vsake
p2713
sI2740
V17
p2714
sI2741
Vqueen
p2715
sI2742
Vinstitution
p2716
sI2743
Varc
p2717
sI2744
Vorleans
p2718
sI2745
Vdesegregation
p2719
sI2746
Vcomposed
p2720
sI2747
Vatlantic
p2721
sI2748
Veleven
p2722
sI2749
Vrode
p2723
sI2750
Vindicates
p2724
sI2751
Vconscience
p2725
sI2752
Vshared
p2726
sI2753
Vdecide
p2727
sI2754
Ve
sI2755
Vpresumably
p2728
sI2756
Vbob
p2729
sI2757
Vtreasury
p2730
sI2758
Vtalent
p2731
sI2759
Vhandsome
p2732
sI2760
Vhappens
p2733
sI2761
Vparallel
p2734
sI2762
Vthoroughly
p2735
sI2763
Vlanguages
p2736
sI2764
Vjoy
p2737
sI2765
Vlaboratory
p2738
sI2766
Vafford
p2739
sI2767
Vvisual
p2740
sI2768
Vcombined
p2741
sI2769
Vhighway
p2742
sI2770
Vgrace
p2743
sI2771
Vlegislative
p2744
sI2772
Vstudying
p2745
sI2773
Vglance
p2746
sI2774
Vnotion
p2747
sI2775
Vguidance
p2748
sI2776
Vfinger
p2749
sI2777
Vprominent
p2750
sI2778
Vexception
p2751
sI2779
Vstepped
p2752
sI2780
Vregions
p2753
sI2781
Vtool
p2754
sI2782
Vregarding
p2755
sI2783
Vsenator
p2756
sI2784
Vthrown
p2757
sI2785
Vpermanent
p2758
sI2786
Vdemocrats
p2759
sI2787
Vpainted
p2760
sI2788
Vatoms
p2761
sI2789
Vcriticism
p2762
sI2790
Vshouted
p2763
sI2791
Vnecessity
p2764
sI2792
Vdrawing
p2765
sI2793
Vobservations
p2766
sI2794
Vgoals
p2767
sI2795
Vpersonally
p2768
sI2796
Vwinston
p2769
sI2797
V40
p2770
sI2798
Vautomatic
p2771
sI2799
Vexisted
p2772
sI2800
Vfocus
p2773
sI2801
Vmissed
p2774
sI2802
Vcustomers
p2775
sI2803
Vbrings
p2776
sI2804
Vstranger
p2777
sI2805
Vdependent
p2778
sI2806
Vshear
p2779
sI2807
Vdean
p2780
sI2808
Vdiscover
p2781
sI2809
Vimprovement
p2782
sI2810
Vapproved
p2783
sI2811
Vwalter
p2784
sI2812
Va.m.
p2785
sI2813
Vpapa
p2786
sI2814
Vpope
p2787
sI2815
Vneighbors
p2788
sI2816
Vbars
p2789
sI2817
Vintense
p2790
sI2818
Vproof
p2791
sI2819
Vburned
p2792
sI2820
Villinois
p2793
sI2821
Vestimate
p2794
sI2822
Vsatisfactory
p2795
sI2823
Vself
p2796
sI2824
Vemergency
p2797
sI2825
Vcomedy
p2798
sI2826
Vcooperation
p2799
sI2827
Vfurthermore
p2800
sI2828
Vcontrolled
p2801
sI2829
Vmagazine
p2802
sI2830
Vcommunists
p2803
sI2831
Vsleeping
p2804
sI2832
Vcolleges
p2805
sI2833
Vrecall
p2806
sI2834
Vmystery
p2807
sI2835
Vjoint
p2808
sI2836
Vprovisions
p2809
sI2837
Vtransfer
p2810
sI2838
Vrepresents
p2811
sI2839
Vassured
p2812
sI2840
Vmaturity
p2813
sI2841
Vagents
p2814
sI2842
Vdefined
p2815
sI2843
Vcode
p2816
sI2844
Vgained
p2817
sI2845
Vstriking
p2818
sI2846
Vconcert
p2819
sI2847
Vfinish
p2820
sI2848
Vsoldier
p2821
sI2849
Vallotment
p2822
sI2850
Vmississippi
p2823
sI2851
Vauthorities
p2824
sI2852
Vanywhere
p2825
sI2853
Vimprove
p2826
sI2854
Vhydrogen
p2827
sI2855
Vdeeply
p2828
sI2856
Vrevealed
p2829
sI2857
Vtv
p2830
sI2858
Vguest
p2831
sI2859
Vintroduction
p2832
sI2860
Vrayburn
p2833
sI2861
Vlegislature
p2834
sI2862
Vholes
p2835
sI2863
Vtrials
p2836
sI2864
Vforever
p2837
sI2865
Vsevere
p2838
sI2866
Vlistening
p2839
sI2867
Vneutral
p2840
sI2868
Vmad
p2841
sI2869
Vlawrence
p2842
sI2870
Vfurniture
p2843
sI2871
Vinch
p2844
sI2872
Vattractive
p2845
sI2873
Vcontributed
p2846
sI2874
Vobjectives
p2847
sI2875
Vderived
p2848
sI2876
Vdetermination
p2849
sI2877
Vmankind
p2850
sI2878
Vselection
p2851
sI2879
Vdestroyed
p2852
sI2880
Vacts
p2853
sI2881
Vstick
p2854
sI2882
Vbringing
p2855
sI2883
Vdefinition
p2856
sI2884
Vtonight
p2857
sI2885
Vohio
p2858
sI2886
Vturns
p2859
sI2887
Vregardless
p2860
sI2888
Vstate's
p2861
sI2889
Vserving
p2862
sI2890
Vhaven't
p2863
sI2891
Vforgotten
p2864
sI2892
Vexperimental
p2865
sI2893
Vdestruction
p2866
sI2894
Vpalace
p2867
sI2895
Vears
p2868
sI2896
Vsudden
p2869
sI2897
Vrobinson
p2870
sI2898
Vsacred
p2871
sI2899
Varrangements
p2872
sI2900
Vn
sI2901
Vclouds
p2873
sI2902
Vorganic
p2874
sI2903
Vaxis
p2875
sI2904
Vsharply
p2876
sI2905
Vsister
p2877
sI2906
Vmayor
p2878
sI2907
Vreception
p2879
sI2908
Vinevitably
p2880
sI2909
Vprocessing
p2881
sI2910
Vcotton
p2882
sI2911
Vfather's
p2883
sI2912
Vspecifically
p2884
sI2913
Vrepresent
p2885
sI2914
Vinstant
p2886
sI2915
Vrandom
p2887
sI2916
Vprimitive
p2888
sI2917
Vdistricts
p2889
sI2918
Vr
sI2919
Vpleasant
p2890
sI2920
Vonset
p2891
sI2921
Vgod's
p2892
sI2922
Vfoundation
p2893
sI2923
Vpressures
p2894
sI2924
Vjapan
p2895
sI2925
Vfifth
p2896
sI2926
Vcontains
p2897
sI2927
Vcorresponding
p2898
sI2928
Vconsumer
p2899
sI2929
V31
p2900
sI2930
Vagricultural
p2901
sI2931
Vexperts
p2902
sI2932
Vcopy
p2903
sI2933
Vaccounts
p2904
sI2934
Vbriefly
p2905
sI2935
Vglad
p2906
sI2936
Vpiano
p2907
sI2937
Vknees
p2908
sI2938
Vhandling
p2909
sI2939
Vscheduled
p2910
sI2940
Vtemple
p2911
sI2941
Vpaul
p2912
sI2942
Vrelationships
p2913
sI2943
Vsimultaneously
p2914
sI2944
Vthyroid
p2915
sI2945
Vnewspapers
p2916
sI2946
Vthompson
p2917
sI2947
Vleaned
p2918
sI2948
Vattempts
p2919
sI2949
V200
p2920
sI2950
Vhanded
p2921
sI2951
Vvoices
p2922
sI2952
Vtrack
p2923
sI2953
Vcandidates
p2924
sI2954
Vsupper
p2925
sI2955
Vspoken
p2926
sI2956
Vedges
p2927
sI2957
Vtested
p2928
sI2958
Vharbor
p2929
sI2959
Vsurvey
p2930
sI2960
Vswimming
p2931
sI2961
Villusion
p2932
sI2962
Vplot
p2933
sI2963
Vreserve
p2934
sI2964
Vthanks
p2935
sI2965
Vprofession
p2936
sI2966
Vfoam
p2937
sI2967
Vdistant
p2938
sI2968
Vdeeper
p2939
sI2969
Vimages
p2940
sI2970
Vstaining
p2941
sI2971
Vroy
p2942
sI2972
Vmood
p2943
sI2973
Vsusan
p2944
sI2974
Vchose
p2945
sI2975
Vhurt
p2946
sI2976
Vfail
p2947
sI2977
Vdrunk
p2948
sI2978
Vblocks
p2949
sI2979
Vedition
p2950
sI2980
Vstomach
p2951
sI2981
Vfool
p2952
sI2982
Vbelong
p2953
sI2983
Vnation's
p2954
sI2984
Vpaint
p2955
sI2985
Veffectively
p2956
sI2986
Vcomfortable
p2957
sI2987
Vassure
p2958
sI2988
Voutstanding
p2959
sI2989
Vfeature
p2960
sI2990
Venormous
p2961
sI2991
Vinnocent
p2962
sI2992
Vauthorized
p2963
sI2993
Vresulted
p2964
sI2994
Vdevices
p2965
sI2995
Vreaders
p2966
sI2996
Vmagic
p2967
sI2997
Vholmes
p2968
sI2998
Vroberts
p2969
sI2999
Vaim
p2970
sI3000
Vspecies
p2971
sI3001
Vbanks
p2972
sI3002
Vcolonel
p2973
sI3003
Vadmit
p2974
sI3004
Vnavy
p2975
sI3005
Vdelivered
p2976
sI3006
Vserves
p2977
sI3007
Vmixed
p2978
sI3008
Vdefinite
p2979
sI3009
Vrelease
p2980
sI3010
Vpush
p2981
sI3011
Vmale
p2982
sI3012
Vatom
p2983
sI3013
Voccasional
p2984
sI3014
Villustrated
p2985
sI3015
Vstrongly
p2986
sI3016
Vaccompanied
p2987
sI3017
Vstronger
p2988
sI3018
Vquestionnaire
p2989
sI3019
Vcleaning
p2990
sI3020
Vsigned
p2991
sI3021
Vskills
p2992
sI3022
Vcontribution
p2993
sI3023
Vtremendous
p2994
sI3024
Vnoise
p2995
sI3025
Vgate
p2996
sI3026
Vformation
p2997
sI3027
Vconstructed
p2998
sI3028
Vchicken
p2999
sI3029
Vshadow
p3000
sI3030
Vbeings
p3001
sI3031
Vvariable
p3002
sI3032
Vjim
p3003
sI3033
Vprinted
p3004
sI3034
Vdirty
p3005
sI3035
Vsmiling
p3006
sI3036
Vcolumns
p3007
sI3037
Voutlook
p3008
sI3038
Vstored
p3009
sI3039
Vguide
p3010
sI3040
Vcamera
p3011
sI3041
Vdressed
p3012
sI3042
Vcrew
p3013
sI3043
Vmaris
p3014
sI3044
Vsymbols
p3015
sI3045
Vsupplied
p3016
sI3046
Vfootball
p3017
sI3047
Vcards
p3018
sI3048
Vcash
p3019
sI3049
Vlying
p3020
sI3050
Vyou'd
p3021
sI3051
Vkinds
p3022
sI3052
Verror
p3023
sI3053
Vbomb
p3024
sI3054
Vconclusions
p3025
sI3055
Vequipped
p3026
sI3056
Vaffected
p3027
sI3057
Vforty
p3028
sI3058
Vratio
p3029
sI3059
Vmoves
p3030
sI3060
Vhurry
p3031
sI3061
Vclassic
p3032
sI3062
Vindustries
p3033
sI3063
Vwise
p3034
sI3064
Vbaker
p3035
sI3065
Vfilling
p3036
sI3066
Vworship
p3037
sI3067
Vvisitors
p3038
sI3068
Vlicense
p3039
sI3069
Vpatients
p3040
sI3070
Vextension
p3041
sI3071
Vintention
p3042
sI3072
Vsubstantially
p3043
sI3073
Vdoors
p3044
sI3074
Vassistant
p3045
sI3075
Vscientists
p3046
sI3076
Vchallenge
p3047
sI3077
Vaccuracy
p3048
sI3078
Vdesirable
p3049
sI3079
Vpaintings
p3050
sI3080
Vpeter
p3051
sI3081
Vsees
p3052
sI3082
Vjackson
p3053
sI3083
Vf
sI3084
Vnormally
p3054
sI3085
Vsympathy
p3055
sI3086
Vpeoples
p3056
sI3087
Vsimilarly
p3057
sI3088
Vspanish
p3058
sI3089
Vscholarship
p3059
sI3090
Vschedule
p3060
sI3091
Vsatisfied
p3061
sI3092
Vfellowship
p3062
sI3093
Vtough
p3063
sI3094
Vbinomial
p3064
sI3095
Vautomatically
p3065
sI3096
Vmanaged
p3066
sI3097
Vcoating
p3067
sI3098
Varen't
p3068
sI3099
Vthank
p3069
sI3100
Voccupied
p3070
sI3101
Vvisiting
p3071
sI3102
Vhost
p3072
sI3103
Vcharacters
p3073
sI3104
Vmother's
p3074
sI3105
Vattended
p3075
sI3106
Vmultiple
p3076
sI3107
Vwednesday
p3077
sI3108
Vinstalled
p3078
sI3109
Vtape
p3079
sI3110
Vyard
p3080
sI3111
Voutput
p3081
sI3112
Vphenomenon
p3082
sI3113
Vclark
p3083
sI3114
Vmeets
p3084
sI3115
Veggs
p3085
sI3116
Vpresently
p3086
sI3117
Vwear
p3087
sI3118
Vstores
p3088
sI3119
Vrow
p3089
sI3120
Vsciences
p3090
sI3121
Vmatsuo
p3091
sI3122
Vinstructions
p3092
sI3123
Vpreserve
p3093
sI3124
Vbombs
p3094
sI3125
Vnationalism
p3095
sI3126
Vatlanta
p3096
sI3127
Vpatent
p3097
sI3128
Vretired
p3098
sI3129
Vfruit
p3099
sI3130
Vprepare
p3100
sI3131
Vprobability
p3101
sI3132
Vmeanwhile
p3102
sI3133
Vconsequences
p3103
sI3134
Vaccurate
p3104
sI3135
Vaffect
p3105
sI3136
Vsympathetic
p3106
sI3137
Vpat
p3107
sI3138
Vlatest
p3108
sI3139
Vbench
p3109
sI3140
Vwashed
p3110
sI3141
Vbeer
p3111
sI3142
Vcrime
p3112
sI3143
Vlumber
p3113
sI3144
Vmyth
p3114
sI3145
Vurged
p3115
sI3146
Vworried
p3116
sI3147
Vharry
p3117
sI3148
Vowners
p3118
sI3149
Vcounties
p3119
sI3150
Vworld's
p3120
sI3151
Vcalculated
p3121
sI3152
Vproducing
p3122
sI3153
Vsounded
p3123
sI3154
Vtongue
p3124
sI3155
Vheight
p3125
sI3156
Vdignity
p3126
sI3157
Vreturning
p3127
sI3158
V1962
p3128
sI3159
Vdisappeared
p3129
sI3160
Vvirgin
p3130
sI3161
Vrevenue
p3131
sI3162
Vpont
p3132
sI3163
Vover-all
p3133
sI3164
Vcontext
p3134
sI3165
Vperformed
p3135
sI3166
Vjane
p3136
sI3167
Vsad
p3137
sI3168
Vknee
p3138
sI3169
Vjumped
p3139
sI3170
Vwaste
p3140
sI3171
Vvehicle
p3141
sI3172
Vcalm
p3142
sI3173
Vgrade
p3143
sI3174
Vyield
p3144
sI3175
Vroutine
p3145
sI3176
Vclaimed
p3146
sI3177
Visolated
p3147
sI3178
Vsymbolic
p3148
sI3179
Vstanley
p3149
sI3180
Vfish
p3150
sI3181
Vadjustment
p3151
sI3182
Vsequence
p3152
sI3183
Vroll
p3153
sI3184
Vquarter
p3154
sI3185
Vemotion
p3155
sI3186
Vdivine
p3156
sI3187
Vpencil
p3157
sI3188
Vreasonably
p3158
sI3189
Vsending
p3159
sI3190
Vexposed
p3160
sI3191
Vphrase
p3161
sI3192
Vlists
p3162
sI3193
Vtells
p3163
sI3194
Valternative
p3164
sI3195
Vsept.
p3165
sI3196
Vshortly
p3166
sI3197
Vocean
p3167
sI3198
Vfallen
p3168
sI3199
Vfolk
p3169
sI3200
Vvary
p3170
sI3201
Vreturns
p3171
sI3202
Vdecades
p3172
sI3203
Vlee
p3173
sI3204
Vbent
p3174
sI3205
Vowned
p3175
sI3206
Vsentence
p3176
sI3207
Vreceiving
p3177
sI3208
Vseldom
p3178
sI3209
Vnet
p3179
sI3210
Vmetropolitan
p3180
sI3211
Vcrazy
p3181
sI3212
Vbus
p3182
sI3213
Vvisible
p3183
sI3214
Vswept
p3184
sI3215
Vprotect
p3185
sI3216
Vcorn
p3186
sI3217
Vsing
p3187
sI3218
Vworst
p3188
sI3219
Vbigger
p3189
sI3220
Vtends
p3190
sI3221
Vlogical
p3191
sI3222
Vthereby
p3192
sI3223
Vmeasurement
p3193
sI3224
Vgolf
p3194
sI3225
Vreporters
p3195
sI3226
Vpresidential
p3196
sI3227
Vmechanical
p3197
sI3228
Vduties
p3198
sI3229
Vblame
p3199
sI3230
Varrangement
p3200
sI3231
Vsuitable
p3201
sI3232
Vsugar
p3202
sI3233
Vsuggestion
p3203
sI3234
Vjohnson
p3204
sI3235
Vcanada
p3205
sI3236
Vopenly
p3206
sI3237
Vbadly
p3207
sI3238
Vroles
p3208
sI3239
Vraising
p3209
sI3240
Vsmell
p3210
sI3241
Vfindings
p3211
sI3242
Vtears
p3212
sI3243
Vdispute
p3213
sI3244
Vhunting
p3214
sI3245
Vcurrently
p3215
sI3246
Vtools
p3216
sI3247
Vtied
p3217
sI3248
Vgenuine
p3218
sI3249
Vmistake
p3219
sI3250
Vabstract
p3220
sI3251
Vdying
p3221
sI3252
Vsamuel
p3222
sI3253
Vfinancing
p3223
sI3254
Vfrequent
p3224
sI3255
Vharvard
p3225
sI3256
Vcandidate
p3226
sI3257
Vclerk
p3227
sI3258
Vstretched
p3228
sI3259
Vitaly
p3229
sI3260
Vkeys
p3230
sI3261
Vfacing
p3231
sI3262
Vrealistic
p3232
sI3263
Vsenior
p3233
sI3264
Vwe've
p3234
sI3265
Vchlorine
p3235
sI3266
Vrice
p3236
sI3267
Vchild's
p3237
sI3268
Vfewer
p3238
sI3269
Vguilt
p3239
sI3270
Vburst
p3240
sI3271
Vthermal
p3241
sI3272
Vmissing
p3242
sI3273
Vdetermining
p3243
sI3274
Vcampus
p3244
sI3275
Vdemonstrated
p3245
sI3276
Vsurvive
p3246
sI3277
Vjacket
p3247
sI3278
Vadvised
p3248
sI3279
Vlunch
p3249
sI3280
Vexamine
p3250
sI3281
Vclassical
p3251
sI3282
Vrector
p3252
sI3283
Vpathology
p3253
sI3284
Vsucceeded
p3254
sI3285
Vattempted
p3255
sI3286
Vnaval
p3256
sI3287
Vprince
p3257
sI3288
Vandy
p3258
sI3289
Vcharter
p3259
sI3290
Vsubstance
p3260
sI3291
Vdamage
p3261
sI3292
Vwash
p3262
sI3293
Vfarmers
p3263
sI3294
Vdrill
p3264
sI3295
Vowner
p3265
sI3296
Vadjusted
p3266
sI3297
Vjess
p3267
sI3298
Vinevitable
p3268
sI3299
Vstems
p3269
sI3300
Vaffair
p3270
sI3301
Vparked
p3271
sI3302
Vfate
p3272
sI3303
Vinterview
p3273
sI3304
Vgrave
p3274
sI3305
Vgift
p3275
sI3306
Vstrictly
p3276
sI3307
Vpresentation
p3277
sI3308
Vequation
p3278
sI3309
Vfavorable
p3279
sI3310
Vsymphony
p3280
sI3311
Valert
p3281
sI3312
Vadmission
p3282
sI3313
Vslavery
p3283
sI3314
Vinvolving
p3284
sI3315
Vtragic
p3285
sI3316
Velected
p3286
sI3317
Vscheme
p3287
sI3318
Vbone
p3288
sI3319
Vmatching
p3289
sI3320
Vsuffer
p3290
sI3321
Vleads
p3291
sI3322
Vhealthy
p3292
sI3323
Vunfortunately
p3293
sI3324
Vthursday
p3294
sI3325
Vnights
p3295
sI3326
Vfiled
p3296
sI3327
Vswift
p3297
sI3328
Vaccident
p3298
sI3329
Vharmony
p3299
sI3330
Vfalling
p3300
sI3331
Vfuneral
p3301
sI3332
Vmassive
p3302
sI3333
Vartistic
p3303
sI3334
Vrejected
p3304
sI3335
Vnamely
p3305
sI3336
Vbride
p3306
sI3337
Vperformances
p3307
sI3338
Vpoland
p3308
sI3339
Vprokofieff
p3309
sI3340
Vconnected
p3310
sI3341
Vpresents
p3311
sI3342
Vfly
p3312
sI3343
Vprecise
p3313
sI3344
Vbenefits
p3314
sI3345
Vmountain
p3315
sI3346
Vbranches
p3316
sI3347
Vquantity
p3317
sI3348
Vviolent
p3318
sI3349
Vblow
p3319
sI3350
Vcatholics
p3320
sI3351
Vengineers
p3321
sI3352
Vbranch
p3322
sI3353
Vcooking
p3323
sI3354
Vkids
p3324
sI3355
Vsurvival
p3325
sI3356
Vso-called
p3326
sI3357
Vscotty
p3327
sI3358
Vstuff
p3328
sI3359
Vexcitement
p3329
sI3360
Vgardens
p3330
sI3361
Vdiscussions
p3331
sI3362
Vtransition
p3332
sI3363
Vsalvation
p3333
sI3364
Vconception
p3334
sI3365
Vtesting
p3335
sI3366
Vawareness
p3336
sI3367
Vthey'll
p3337
sI3368
Vdepending
p3338
sI3369
Vcurt
p3339
sI3370
Vpartner
p3340
sI3371
V**zg
p3341
sI3372
Vwedding
p3342
sI3373
Vmud
p3343
sI3374
Vremarked
p3344
sI3375
Vskywave
p3345
sI3376
Vconcluded
p3346
sI3377
Vhousehold
p3347
sI3378
Vslipped
p3348
sI3379
Vlong-term
p3349
sI3380
Vindians
p3350
sI3381
Vtemporary
p3351
sI3382
Vreflection
p3352
sI3383
Vgorton
p3353
sI3384
Vgesture
p3354
sI3385
Vremote
p3355
sI3386
Vcoal
p3356
sI3387
Vcourage
p3357
sI3388
Vshouting
p3358
sI3389
Velectronics
p3359
sI3390
Veffectiveness
p3360
sI3391
Vfalls
p3361
sI3392
Vchandler
p3362
sI3393
Vfishing
p3363
sI3394
Velaborate
p3364
sI3395
Vmissiles
p3365
sI3396
Vmills
p3366
sI3397
Vcovering
p3367
sI3398
Vfarther
p3368
sI3399
Vcollective
p3369
sI3400
Vdamn
p3370
sI3401
Vlacking
p3371
sI3402
Vvariation
p3372
sI3403
Vinitiative
p3373
sI3404
V19
p3374
sI3405
Vefficient
p3375
sI3406
Vromantic
p3376
sI3407
Vcrowded
p3377
sI3408
V26
p3378
sI3409
Vweak
p3379
sI3410
Vpromote
p3380
sI3411
Vvan
p3381
sI3412
Vinadequate
p3382
sI3413
Vwe'd
p3383
sI3414
Veastern
p3384
sI3415
Vcastro
p3385
sI3416
Vwilliams
p3386
sI3417
Vemission
p3387
sI3418
Vgathered
p3388
sI3419
Vloans
p3389
sI3420
Vspots
p3390
sI3421
Vcircles
p3391
sI3422
Veating
p3392
sI3423
Vmuseum
p3393
sI3424
Vconfronted
p3394
sI3425
Vcovers
p3395
sI3426
Ve.g.
p3396
sI3427
Vharold
p3397
sI3428
Vfactory
p3398
sI3429
Vplastic
p3399
sI3430
Vnaked
p3400
sI3431
Vhoward
p3401
sI3432
Vuniversities
p3402
sI3433
Vdebate
p3403
sI3434
Vpoets
p3404
sI3435
Vextend
p3405
sI3436
Vdave
p3406
sI3437
Vtroubled
p3407
sI3438
Vknocked
p3408
sI3439
Vtossed
p3409
sI3440
Vfourteen
p3410
sI3441
Vjuniors
p3411
sI3442
Vgallery
p3412
sI3443
Vdensity
p3413
sI3444
Vmovies
p3414
sI3445
Vstrain
p3415
sI3446
Vevaluation
p3416
sI3447
Vextraordinary
p3417
sI3448
Vcomposer
p3418
sI3449
Vfrequencies
p3419
sI3450
Varticles
p3420
sI3451
Vheading
p3421
sI3452
Vreducing
p3422
sI3453
Vtube
p3423
sI3454
Vmature
p3424
sI3455
Vbird
p3425
sI3456
Vaccordingly
p3426
sI3457
Vconservative
p3427
sI3458
Vcolored
p3428
sI3459
Vlightly
p3429
sI3460
Vfinance
p3430
sI3461
Vallowing
p3431
sI3462
Vinvariably
p3432
sI3463
Vsaline
p3433
sI3464
Vconsequently
p3434
sI3465
Vremark
p3435
sI3466
Vstudio
p3436
sI3467
Vletting
p3437
sI3468
Vceiling
p3438
sI3469
Venterprise
p3439
sI3470
Vbeef
p3440
sI3471
Vpacific
p3441
sI3472
Vcompetitive
p3442
sI3473
Vlocking
p3443
sI3474
Vcounter
p3444
sI3475
Vgently
p3445
sI3476
Vv.
p3446
sI3477
Vhorn
p3447
sI3478
Vplastics
p3448
sI3479
V1952
p3449
sI3480
Vchecked
p3450
sI3481
Vruled
p3451
sI3482
Vselling
p3452
sI3483
Vpanel
p3453
sI3484
Vouter
p3454
sI3485
Vperfectly
p3455
sI3486
Vsecondary
p3456
sI3487
Vrecording
p3457
sI3488
Vdancer
p3458
sI3489
Vhelps
p3459
sI3490
Vtrail
p3460
sI3491
Vsuccessfully
p3461
sI3492
Vmarkets
p3462
sI3493
Vdecline
p3463
sI3494
Vrussians
p3464
sI3495
Vmainly
p3465
sI3496
Vfilms
p3466
sI3497
Vseventh
p3467
sI3498
Vstructures
p3468
sI3499
Vpages
p3469
sI3500
Vbarely
p3470
sI3501
Vrespectively
p3471
sI3502
Vdefeat
p3472
sI3503
Vconsiderations
p3473
sI3504
Vpoetic
p3474
sI3505
Vdancers
p3475
sI3506
Vbasement
p3476
sI3507
Vterritory
p3477
sI3508
Vkansas
p3478
sI3509
Vfallout
p3479
sI3510
Vinvolve
p3480
sI3511
Vstarts
p3481
sI3512
Vending
p3482
sI3513
Vsoftly
p3483
sI3514
Vmaid
p3484
sI3515
Vprotected
p3485
sI3516
Vmuscles
p3486
sI3517
Vshock
p3487
sI3518
Vwinning
p3488
sI3519
Vparking
p3489
sI3520
Vchristianity
p3490
sI3521
Videntical
p3491
sI3522
Vlocked
p3492
sI3523
Vabsolute
p3493
sI3524
Valtogether
p3494
sI3525
Vsplit
p3495
sI3526
Vcomplicated
p3496
sI3527
Vconcentrated
p3497
sI3528
Vsharpe
p3498
sI3529
Veddie
p3499
sI3530
Vlane
p3500
sI3531
Vera
p3501
sI3532
Vsovereign
p3502
sI3533
Vdartmouth
p3503
sI3534
Vfranklin
p3504
sI3535
Vreform
p3505
sI3536
Vroot
p3506
sI3537
Vshakespeare
p3507
sI3538
Vsuspect
p3508
sI3539
Vgrinned
p3509
sI3540
Vsheets
p3510
sI3541
Vskilled
p3511
sI3542
Vexpert
p3512
sI3543
Vallies
p3513
sI3544
Vjohnny
p3514
sI3545
Valex
p3515
sI3546
Vdealers
p3516
sI3547
Vimpressed
p3517
sI3548
Vslave
p3518
sI3549
Vexcessive
p3519
sI3550
Vcarbon
p3520
sI3551
Vrepresenting
p3521
sI3552
Vbuying
p3522
sI3553
Vthey'd
p3523
sI3554
Vsen.
p3524
sI3555
Vfelix
p3525
sI3556
Vblanket
p3526
sI3557
Vsecure
p3527
sI3558
Vcomments
p3528
sI3559
Vwoodruff
p3529
sI3560
Vislands
p3530
sI3561
Vcuts
p3531
sI3562
Vdates
p3532
sI3563
Vencountered
p3533
sI3564
Vcitizen
p3534
sI3565
Vmixture
p3535
sI3566
Vpreceding
p3536
sI3567
Vdirections
p3537
sI3568
Vstable
p3538
sI3569
Vcried
p3539
sI3570
Vreplace
p3540
sI3571
Vworker
p3541
sI3572
Voccurrence
p3542
sI3573
Vvirtue
p3543
sI3574
Vmiriam
p3544
sI3575
Vlistened
p3545
sI3576
Vlouisiana
p3546
sI3577
Vmedicine
p3547
sI3578
Vvoting
p3548
sI3579
Vasleep
p3549
sI3580
Vunconscious
p3550
sI3581
Vcrucial
p3551
sI3582
Vconsciousness
p3552
sI3583
Vdreams
p3553
sI3584
Vpropaganda
p3554
sI3585
Vstem
p3555
sI3586
Vsuspended
p3556
sI3587
Vdoctors
p3557
sI3588
Vmeal
p3558
sI3589
Vgay
p3559
sI3590
Vdeliberately
p3560
sI3591
Vflux
p3561
sI3592
Vdimensions
p3562
sI3593
Vcontrols
p3563
sI3594
Vreveal
p3564
sI3595
Vconsequence
p3565
sI3596
Vassociations
p3566
sI3597
Vfrontier
p3567
sI3598
Vranging
p3568
sI3599
Vgraduate
p3569
sI3600
Vhoping
p3570
sI3601
Vnowhere
p3571
sI3602
Vnetwork
p3572
sI3603
Vsacrifice
p3573
sI3604
Vfence
p3574
sI3605
Vradical
p3575
sI3606
Vsponsored
p3576
sI3607
Vhistorian
p3577
sI3608
Vhe'll
p3578
sI3609
Vsurprising
p3579
sI3610
Vmeasuring
p3580
sI3611
Vinstances
p3581
sI3612
Vstrip
p3582
sI3613
Vwidespread
p3583
sI3614
Vpurely
p3584
sI3615
Vet
p3585
sI3616
Vmodest
p3586
sI3617
Vsang
p3587
sI3618
Vtrips
p3588
sI3619
Vtestament
p3589
sI3620
Vbelt
p3590
sI3621
Vpressed
p3591
sI3622
Vvigorous
p3592
sI3623
Vfalse
p3593
sI3624
Vrecovery
p3594
sI3625
Vtransferred
p3595
sI3626
Vstars
p3596
sI3627
Vquestioned
p3597
sI3628
Vconstitute
p3598
sI3629
Ventertainment
p3599
sI3630
Vproposals
p3600
sI3631
Vallied
p3601
sI3632
Vbuilder
p3602
sI3633
Vlieutenant
p3603
sI3634
Vsuggests
p3604
sI3635
Vexamination
p3605
sI3636
Vtheatre
p3606
sI3637
Vsilver
p3607
sI3638
Vmorality
p3608
sI3639
Vcommonly
p3609
sI3640
Vanxious
p3610
sI3641
Vglasses
p3611
sI3642
Vcow
p3612
sI3643
Vproportion
p3613
sI3644
Vfees
p3614
sI3645
Vprecious
p3615
sI3646
Vethical
p3616
sI3647
Vsuburban
p3617
sI3648
Vshots
p3618
sI3649
Vsherman
p3619
sI3650
Vo.
p3620
sI3651
Vapplying
p3621
sI3652
Vtea
p3622
sI3653
Velectron
p3623
sI3654
Vhelpful
p3624
sI3655
Vthreatened
p3625
sI3656
Vargue
p3626
sI3657
Vtasks
p3627
sI3658
Vmerit
p3628
sI3659
Vjet
p3629
sI3660
Vmighty
p3630
sI3661
Vmorse
p3631
sI3662
Vexciting
p3632
sI3663
Vshorts
p3633
sI3664
Vcarleton
p3634
sI3665
Valbert
p3635
sI3666
Vscenes
p3636
sI3667
Vperform
p3637
sI3668
Vmickey
p3638
sI3669
Vregulations
p3639
sI3670
Vecumenical
p3640
sI3671
Vear
p3641
sI3672
Vbronchial
p3642
sI3673
Vjurisdiction
p3643
sI3674
Vdelight
p3644
sI3675
Vperception
p3645
sI3676
Vlesson
p3646
sI3677
Vsewage
p3647
sI3678
Veternal
p3648
sI3679
Vsolutions
p3649
sI3680
Vguilty
p3650
sI3681
Vsubsequent
p3651
sI3682
Vprestige
p3652
sI3683
Vcreating
p3653
sI3684
Vshapes
p3654
sI3685
Vdrying
p3655
sI3686
Vann
p3656
sI3687
Vresidence
p3657
sI3688
Vbrooklyn
p3658
sI3689
Vmovie
p3659
sI3690
Vsignals
p3660
sI3691
Vapparatus
p3661
sI3692
Vvolunteers
p3662
sI3693
Vpoured
p3663
sI3694
Vextending
p3664
sI3695
Vpetitioner
p3665
sI3696
Vmagnitude
p3666
sI3697
Vutility
p3667
sI3698
Vbrannon
p3668
sI3699
Vargued
p3669
sI3700
Vdivorce
p3670
sI3701
Vfurnish
p3671
sI3702
Vfabrics
p3672
sI3703
Vplayers
p3673
sI3704
Vrepublicans
p3674
sI3705
Vlighted
p3675
sI3706
Vignored
p3676
sI3707
Vencouraged
p3677
sI3708
Vreminded
p3678
sI3709
Vsamples
p3679
sI3710
Vsons
p3680
sI3711
Vbare
p3681
sI3712
Vbarn
p3682
sI3713
Vunions
p3683
sI3714
Vcontributions
p3684
sI3715
Vhanging
p3685
sI3716
Vsensitivity
p3686
sI3717
Vhal
p3687
sI3718
Vmunicipal
p3688
sI3719
Vwitness
p3689
sI3720
Vsergeant
p3690
sI3721
Vpassion
p3691
sI3722
Vtons
p3692
sI3723
Vprayer
p3693
sI3724
Vverse
p3694
sI3725
Vinnocence
p3695
sI3726
Vexamined
p3696
sI3727
Vlimitations
p3697
sI3728
Vjourney
p3698
sI3729
Vhappening
p3699
sI3730
Vsovereignty
p3700
sI3731
Venthusiasm
p3701
sI3732
Vramey
p3702
sI3733
Vcure
p3703
sI3734
Vclosing
p3704
sI3735
Vsand
p3705
sI3736
Vnewly
p3706
sI3737
Vsurfaces
p3707
sI3738
Vprize
p3708
sI3739
Vharris
p3709
sI3740
Vsanta
p3710
sI3741
Vdesigns
p3711
sI3742
Vmechanism
p3712
sI3743
Vgentleman
p3713
sI3744
Vpolynomial
p3714
sI3745
Vquarters
p3715
sI3746
Voct.
p3716
sI3747
Vcloud
p3717
sI3748
Vdawn
p3718
sI3749
Vformerly
p3719
sI3750
Vmarks
p3720
sI3751
Vcalendar
p3721
sI3752
Vspecified
p3722
sI3753
Vroosevelt
p3723
sI3754
Vcompare
p3724
sI3755
Vhated
p3725
sI3756
Vlaugh
p3726
sI3757
Vworthy
p3727
sI3758
Vrendered
p3728
sI3759
Vencounter
p3729
sI3760
Vwound
p3730
sI3761
Vhumanity
p3731
sI3762
Vn.
p3732
sI3763
Vprofit
p3733
sI3764
Vconvention
p3734
sI3765
Vdiplomatic
p3735
sI3766
Vdining
p3736
sI3767
Varise
p3737
sI3768
Vpromptly
p3738
sI3769
Vmines
p3739
sI3770
Vdemonstrate
p3740
sI3771
Vadvantages
p3741
sI3772
Vclarity
p3742
sI3773
Vmeetings
p3743
sI3774
Vlosing
p3744
sI3775
Voptimal
p3745
sI3776
Vtight
p3746
sI3777
Vappointment
p3747
sI3778
Vupstairs
p3748
sI3779
Vfreight
p3749
sI3780
Virish
p3750
sI3781
Vwarmth
p3751
sI3782
Vabsent
p3752
sI3783
V1955
p3753
sI3784
V1956
p3754
sI3785
Vstained
p3755
sI3786
Vcommander
p3756
sI3787
Vexcuse
p3757
sI3788
Vgathering
p3758
sI3789
Vpresident's
p3759
sI3790
Vconsistent
p3760
sI3791
Vsoutheast
p3761
sI3792
Vdrugs
p3762
sI3793
Vdried
p3763
sI3794
Vpot
p3764
sI3795
Vcolony
p3765
sI3796
Vsatisfaction
p3766
sI3797
Vladies
p3767
sI3798
Vbullet
p3768
sI3799
Vshade
p3769
sI3800
Vfled
p3770
sI3801
Vpound
p3771
sI3802
Vtalents
p3772
sI3803
Vmaintaining
p3773
sI3804
Vcommunications
p3774
sI3805
Vpaused
p3775
sI3806
Vdiscuss
p3776
sI3807
Vcommitted
p3777
sI3808
Vfolklore
p3778
sI3809
Vyankees
p3779
sI3810
Vpowder
p3780
sI3811
Vpeculiar
p3781
sI3812
Voffering
p3782
sI3813
Vafrican
p3783
sI3814
Vlaughing
p3784
sI3815
Vresponses
p3785
sI3816
Vtextile
p3786
sI3817
Vexclusive
p3787
sI3818
Vlibraries
p3788
sI3819
Vexpanding
p3789
sI3820
Vmarshall
p3790
sI3821
Vexact
p3791
sI3822
Vimagined
p3792
sI3823
Vroots
p3793
sI3824
Voccurs
p3794
sI3825
Vcustomer
p3795
sI3826
Vfestival
p3796
sI3827
Vgermans
p3797
sI3828
Vplacing
p3798
sI3829
Voperated
p3799
sI3830
Vaids
p3800
sI3831
Vobservation
p3801
sI3832
Vweekend
p3802
sI3833
Voutdoor
p3803
sI3834
Vabsolutely
p3804
sI3835
Vutterly
p3805
sI3836
Vacquire
p3806
sI3837
Vrushed
p3807
sI3838
Vprevented
p3808
sI3839
Vt.
p3809
sI3840
Vcompany's
p3810
sI3841
Vinsist
p3811
sI3842
Vdelicate
p3812
sI3843
Vfrozen
p3813
sI3844
Vshirt
p3814
sI3845
Vconceived
p3815
sI3846
Vreorganization
p3816
sI3847
Vpursuant
p3817
sI3848
Vwherever
p3818
sI3849
Vjefferson
p3819
sI3850
Vsurplus
p3820
sI3851
Vmarriages
p3821
sI3852
Vdavis
p3822
sI3853
Vrestrictions
p3823
sI3854
Vwomen's
p3824
sI3855
Vsupporting
p3825
sI3856
Vveteran
p3826
sI3857
Vshayne
p3827
sI3858
Vbuilders
p3828
sI3859
Vinjury
p3829
sI3860
Vupward
p3830
sI3861
Vours
p3831
sI3862
Vseconds
p3832
sI3863
Vscattered
p3833
sI3864
Vpermission
p3834
sI3865
Vchristmas
p3835
sI3866
Vrequirement
p3836
sI3867
Vholder
p3837
sI3868
Vhughes
p3838
sI3869
Vprofound
p3839
sI3870
Vcombat
p3840
sI3871
Vpulmonary
p3841
sI3872
Venemies
p3842
sI3873
Vtheological
p3843
sI3874
Vscope
p3844
sI3875
Vsuspicion
p3845
sI3876
Vrefer
p3846
sI3877
Veager
p3847
sI3878
Vgentle
p3848
sI3879
Vpistol
p3849
sI3880
Vpublicly
p3850
sI3881
Vcap
p3851
sI3882
Vwings
p3852
sI3883
Vminimal
p3853
sI3884
Vdull
p3854
sI3885
Vsuite
p3855
sI3886
Vdelaware
p3856
sI3887
Vbutter
p3857
sI3888
Vshoot
p3858
sI3889
Voral
p3859
sI3890
Vdistributed
p3860
sI3891
Vprevention
p3861
sI3892
Vdiscipline
p3862
sI3893
Vmirror
p3863
sI3894
Vreserved
p3864
sI3895
Vjulia
p3865
sI3896
Vreputation
p3866
sI3897
Vranch
p3867
sI3898
Vmyra
p3868
sI3899
Vv
sI3900
Vfriendship
p3869
sI3901
Vpublicity
p3870
sI3902
Vflew
p3871
sI3903
Vconcepts
p3872
sI3904
Vprefer
p3873
sI3905
Vclayton
p3874
sI3906
Vapproaching
p3875
sI3907
Vliterally
p3876
sI3908
Vvoted
p3877
sI3909
Vconsisting
p3878
sI3910
Vvictim
p3879
sI3911
Vhorizon
p3880
sI3912
Vclinical
p3881
sI3913
Vjudgments
p3882
sI3914
Vpermits
p3883
sI3915
Vslept
p3884
sI3916
Vshopping
p3885
sI3917
Vcady
p3886
sI3918
Vmagnificent
p3887
sI3919
Vdan
p3888
sI3920
Vdefine
p3889
sI3921
Vscholars
p3890
sI3922
Vsurrounding
p3891
sI3923
Vnewport
p3892
sI3924
Vfred
p3893
sI3925
Vfiber
p3894
sI3926
Vpasses
p3895
sI3927
Vgreenwich
p3896
sI3928
Vgrain
p3897
sI3929
Vcontroversy
p3898
sI3930
Vdisturbed
p3899
sI3931
Vframes
p3900
sI3932
Vlively
p3901
sI3933
Vintelligent
p3902
sI3934
Vstaring
p3903
sI3935
Vrepeat
p3904
sI3936
Vsarah
p3905
sI3937
Vappreciate
p3906
sI3938
Vclimate
p3907
sI3939
Vhang
p3908
sI3940
Vsixth
p3909
sI3941
Vjohnnie
p3910
sI3942
Vgreg
p3911
sI3943
Vpart-time
p3912
sI3944
Vvelocity
p3913
sI3945
Vwidow
p3914
sI3946
Vliberals
p3915
sI3947
Vexceptions
p3916
sI3948
Vlanding
p3917
sI3949
Vassist
p3918
sI3950
Vperspective
p3919
sI3951
Vcharm
p3920
sI3952
Vplanes
p3921
sI3953
Vcellar
p3922
sI3954
Vtrembling
p3923
sI3955
Vbath
p3924
sI3956
Vinstruments
p3925
sI3957
Vjew
p3926
sI3958
Vstorm
p3927
sI3959
Vhandled
p3928
sI3960
Vcontest
p3929
sI3961
Velectricity
p3930
sI3962
Vreleased
p3931
sI3963
Vdisaster
p3932
sI3964
Vthreatening
p3933
sI3965
Vjustify
p3934
sI3966
Vstockholders
p3935
sI3967
Vdelightful
p3936
sI3968
Vekstrohm
p3937
sI3969
Vzen
p3938
sI3970
Vconcerts
p3939
sI3971
Vpromotion
p3940
sI3972
Vpointing
p3941
sI3973
Vmitchell
p3942
sI3974
Videntify
p3943
sI3975
Vfrightened
p3944
sI3976
Vgyro
p3945
sI3977
Vcents
p3946
sI3978
Vtraders
p3947
sI3979
Varlene
p3948
sI3980
Vhelva
p3949
sI3981
Vurethane
p3950
sI3982
Vpaying
p3951
sI3983
Vkingdom
p3952
sI3984
Vsettlement
p3953
sI3985
Vinherent
p3954
sI3986
Vinstruction
p3955
sI3987
Vrevenues
p3956
sI3988
Vestablishing
p3957
sI3989
Vlegend
p3958
sI3990
Vregister
p3959
sI3991
Vinvited
p3960
sI3992
Vmarginal
p3961
sI3993
Vmysterious
p3962
sI3994
V1953
p3963
sI3995
Vcard
p3964
sI3996
Vretirement
p3965
sI3997
Vdesperate
p3966
sI3998
Vphenomena
p3967
sI3999
Vrecalled
p3968
sI4000
Vwars
p3969
sI4001
Vmarshal
p3970
sI4002
Vtangent
p3971
sI4003
Vemerged
p3972
sI4004
Vsophisticated
p3973
sI4005
V27
p3974
sI4006
Vunhappy
p3975
sI4007
Veileen
p3976
sI4008
Vsubmarine
p3977
sI4009
Vaesthetic
p3978
sI4010
Voutcome
p3979
sI4011
Vmount
p3980
sI4012
Vanti-trust
p3981
sI4013
Vkennedy's
p3982
sI4014
Vbilly
p3983
sI4015
Vacquired
p3984
sI4016
Vpalfrey
p3985
sI4017
Vmutual
p3986
sI4018
Vsoutherners
p3987
sI4019
Vtemperatures
p3988
sI4020
Vsnakes
p3989
sI4021
Vo
sI4022
Vstretch
p3990
sI4023
Vmeals
p3991
sI4024
Vpreferred
p3992
sI4025
Vill
p3993
sI4026
Vquoted
p3994
sI4027
Vswitches
p3995
sI4028
Vvariables
p3996
sI4029
Vpremier
p3997
sI4030
Vbears
p3998
sI4031
Vbeard
p3999
sI4032
Vtreat
p4000
sI4033
Vcavalry
p4001
sI4034
Vovercome
p4002
sI4035
Vcritics
p4003
sI4036
Vcoolidge
p4004
sI4037
Ventry
p4005
sI4038
Veliminate
p4006
sI4039
Vbridges
p4007
sI4040
Vgear
p4008
sI4041
Vfeeding
p4009
sI4042
Vpatchen
p4010
sI4043
Vphilosophical
p4011
sI4044
Vsessions
p4012
sI4045
Vpeaceful
p4013
sI4046
Vwoods
p4014
sI4047
Vbarton
p4015
sI4048
Vimpressions
p4016
sI4049
Vhouston
p4017
sI4050
Vexposure
p4018
sI4051
Vmagnetic
p4019
sI4052
Vattacked
p4020
sI4053
Vo'banion
p4021
sI4054
Vtrustees
p4022
sI4055
Vchin
p4023
sI4056
Vcorrespondence
p4024
sI4057
Vyeah
p4025
sI4058
Vpittsburgh
p4026
sI4059
Vfortune
p4027
sI4060
Vinspired
p4028
sI4061
Vhired
p4029
sI4062
Vpack
p4030
sI4063
Vcomposition
p4031
sI4064
Vattracted
p4032
sI4065
Vpulling
p4033
sI4066
Vnorthwest
p4034
sI4067
Vstar
p4035
sI4068
Vaboard
p4036
sI4069
Vtrading
p4037
sI4070
Vyours
p4038
sI4071
Vapproaches
p4039
sI4072
Vreaches
p4040
sI4073
Vbang-jensen
p4041
sI4074
Valec
p4042
sI4075
Vcontinually
p4043
sI4076
Vamateur
p4044
sI4077
Vnick
p4045
sI4078
Vdepartments
p4046
sI4079
Vcritic
p4047
sI4080
Vpupils
p4048
sI4081
Vsuccession
p4049
sI4082
Vstructural
p4050
sI4083
Vfog
p4051
sI4084
Vnixon
p4052
sI4085
Vdealer
p4053
sI4086
Vhoney
p4054
sI4087
Vapplications
p4055
sI4088
Vprospect
p4056
sI4089
Vcarolina
p4057
sI4090
Vracial
p4058
sI4091
Val
p4059
sI4092
Vowen
p4060
sI4093
Vd.c.
p4061
sI4094
Vpainful
p4062
sI4095
Vgenerous
p4063
sI4096
Vbearing
p4064
sI4097
Vsubtle
p4065
sI4098
Vflexible
p4066
sI4099
Vtransformed
p4067
sI4100
Vfaint
p4068
sI4101
Vdilemma
p4069
sI4102
Vproductive
p4070
sI4103
Vattached
p4071
sI4104
Vcoverage
p4072
sI4105
Vblanche
p4073
sI4106
Vcigarette
p4074
sI4107
Vexhibit
p4075
sI4108
Vaccused
p4076
sI4109
Vjersey
p4077
sI4110
Vnato
p4078
sI4111
Vrecommend
p4079
sI4112
Vshelters
p4080
sI4113
Vproceeded
p4081
sI4114
Vcorporations
p4082
sI4115
Vcancer
p4083
sI4116
Vlands
p4084
sI4117
Vallowances
p4085
sI4118
Vmothers
p4086
sI4119
Vwally
p4087
sI4120
Vpartially
p4088
sI4121
Vbreaking
p4089
sI4122
Vsaddle
p4090
sI4123
Vstadium
p4091
sI4124
Vmagazines
p4092
sI4125
Vcontacts
p4093
sI4126
Vtwenty-five
p4094
sI4127
Vtorn
p4095
sI4128
Vdelayed
p4096
sI4129
Vvein
p4097
sI4130
Vgrateful
p4098
sI4131
Vrational
p4099
sI4132
Vconstitutional
p4100
sI4133
Vsuits
p4101
sI4134
Vtilghman
p4102
sI4135
Vadult
p4103
sI4136
Vward
p4104
sI4137
Vdestructive
p4105
sI4138
Vconferences
p4106
sI4139
Vpressing
p4107
sI4140
Vroughly
p4108
sI4141
Vpile
p4109
sI4142
Vcomponent
p4110
sI4143
Vharm
p4111
sI4144
Vfist
p4112
sI4145
Vsba
p4113
sI4146
Vaug.
p4114
sI4147
V300
p4115
sI4148
Vexploration
p4116
sI4149
Vglanced
p4117
sI4150
Veugene
p4118
sI4151
Vritual
p4119
sI4152
Vcontinuity
p4120
sI4153
Vlonely
p4121
sI4154
Vdisk
p4122
sI4155
Vpond
p4123
sI4156
Vpatrol
p4124
sI4157
Vabandoned
p4125
sI4158
Vdetergent
p4126
sI4159
Vevidently
p4127
sI4160
Vobserve
p4128
sI4161
Vvague
p4129
sI4162
Vnoon
p4130
sI4163
Vregiment
p4131
sI4164
Vdevil
p4132
sI4165
Vviewed
p4133
sI4166
Vterror
p4134
sI4167
Vprobable
p4135
sI4168
Vparade
p4136
sI4169
Vpenny
p4137
sI4170
Vresponsibilities
p4138
sI4171
Vdemonstration
p4139
sI4172
Vwildly
p4140
sI4173
Vtim
p4141
sI4174
Vconductor
p4142
sI4175
Vcocktail
p4143
sI4176
Vvivid
p4144
sI4177
Vreflect
p4145
sI4178
Vintervals
p4146
sI4179
Voperational
p4147
sI4180
Vmason
p4148
sI4181
Vheating
p4149
sI4182
Vcivilian
p4150
sI4183
Ventering
p4151
sI4184
Vbarrel
p4152
sI4185
Voccupation
p4153
sI4186
Vlock
p4154
sI4187
Vbore
p4155
sI4188
Vautomobiles
p4156
sI4189
Vtubes
p4157
sI4190
Vjump
p4158
sI4191
Vcharming
p4159
sI4192
Vscarcely
p4160
sI4193
Vmanagers
p4161
sI4194
Vnearest
p4162
sI4195
Vdeclaration
p4163
sI4196
Vpromising
p4164
sI4197
Vconsisted
p4165
sI4198
Vzero
p4166
sI4199
Vportland
p4167
sI4200
Vbacked
p4168
sI4201
Vaccess
p4169
sI4202
Vrecommendation
p4170
sI4203
Vqualified
p4171
sI4204
Vtheresa
p4172
sI4205
Vinterpreted
p4173
sI4206
Vadvisory
p4174
sI4207
Vactor
p4175
sI4208
Vweekly
p4176
sI4209
Vmexican
p4177
sI4210
Vdiffusion
p4178
sI4211
Vcategories
p4179
sI4212
Vbend
p4180
sI4213
Vpuerto
p4181
sI4214
Vdrug
p4182
sI4215
Vexplicit
p4183
sI4216
Vspecimen
p4184
sI4217
Vseventeen
p4185
sI4218
Vtractor
p4186
sI4219
Vford
p4187
sI4220
Vrigid
p4188
sI4221
Vaccurately
p4189
sI4222
Vnervous
p4190
sI4223
Vtended
p4191
sI4224
Vcriminal
p4192
sI4225
Vwholly
p4193
sI4226
Venthusiastic
p4194
sI4227
Vestimates
p4195
sI4228
Vclubs
p4196
sI4229
Vrealism
p4197
sI4230
Vannouncement
p4198
sI4231
Vsubjected
p4199
sI4232
Vexclusively
p4200
sI4233
Vdesires
p4201
sI4234
Vacademy
p4202
sI4235
Vtail
p4203
sI4236
Vsitter
p4204
sI4237
Vslid
p4205
sI4238
Vseated
p4206
sI4239
Vhonored
p4207
sI4240
Vmoore
p4208
sI4241
Vpeas
p4209
sI4242
Vaimed
p4210
sI4243
Vfactories
p4211
sI4244
Vnorms
p4212
sI4245
Vmathematical
p4213
sI4246
Vworkshop
p4214
sI4247
Vdrivers
p4215
sI4248
Vdemocracy
p4216
sI4249
Vfunctional
p4217
sI4250
Vbiggest
p4218
sI4251
Vmotel
p4219
sI4252
Vrank
p4220
sI4253
Vcoach
p4221
sI4254
Vswing
p4222
sI4255
V70
p4223
sI4256
Vfiring
p4224
sI4257
Vnarrative
p4225
sI4258
Vseized
p4226
sI4259
Vneighboring
p4227
sI4260
Vchances
p4228
sI4261
Vruling
p4229
sI4262
Vabsorbed
p4230
sI4263
Vmanufacturing
p4231
sI4264
Vdraft
p4232
sI4265
Vrealization
p4233
sI4266
Vbroadway
p4234
sI4267
Vprospects
p4235
sI4268
Vcited
p4236
sI4269
Vmeaningful
p4237
sI4270
Vbrave
p4238
sI4271
Vangels
p4239
sI4272
S'<unk>'
p4240
s.