(dp1
VBE
p2
I32
sVNP$
p3
I48
sVWQL
p4
I109
sVAT-TL
p5
I71
sVWP$
p6
I102
sVWDT
p7
I34
sVJJ
p8
I4
sVRP
p9
I33
sV(
I53
sVPPSS+BER
p10
I98
sV,
I6
sVPPSS+BEM
p11
I99
sVRB
p12
I9
sVJJ-HL
p13
I86
sVNNS
p14
I7
sVWRB
p15
I37
sVDOD*
p16
I85
sVNN$
p17
I60
sVPPLS
p18
I90
sV)-HL
p19
I107
sVBEZ*
p20
I126
sVRB-HL
p21
I146
sVNNS$
p22
I101
sVNNS-HL
p23
I74
sVNIL
p24
I114
sV--
p25
I43
sVOD
p26
I57
sVPP$$
p27
I112
sVCC-TL
p28
I94
sVFW-NN-TL
p29
I111
sVVB-TL
p30
I131
sVPPSS+MD
p31
I81
sS'PAD'
p32
I0
sVNPS
p33
I64
sVDTI
p34
I46
sVBEN
p35
I49
sVBEM
p36
I105
sVEX+BEZ
p37
I127
sVHV
p38
I41
sVBEG
p39
I73
sVBED
p40
I44
sVHVD
p41
I35
sVBEZ
p42
I24
sVDTX
p43
I128
sVAT-HL
p44
I91
sVDTS
p45
I50
sVNNS-TL
p46
I54
sVNP$-TL
p47
I118
sVIN-HL
p48
I79
sVBEDZ
p49
I25
sVNN-TL-HL
p50
I122
sVPN
p51
I47
sVNPS-TL
p52
I142
sVPPSS+HVD
p53
I136
sVEX
p54
I55
sVVBN-HL
p55
I120
sVMD
p56
I22
sVNN-HL
p57
I62
sVVBZ-HL
p58
I140
sVUH
p59
I75
sVPPS+BEZ
p60
I84
sVVBG
p61
I16
sVVBD
p62
I13
sVVBN-TL
p63
I77
sVDOZ*
p64
I133
sVVBN
p65
I12
sVDOD
p66
I67
sVDOZ
p67
I82
sVNR-TL
p68
I93
sVVBZ
p69
I31
sV.
I5
sVNN
p70
I1
sV(-HL
p71
I113
sV*
I36
sVWPS
p72
I42
sVWPO
p73
I97
sVFW-NNS
p74
I137
sVNP
p75
I10
sVNR
p76
I58
sV:
I59
sVMD*
p77
I70
sV``
p78
I28
sVFW-JJ
p79
I145
sVCC
p80
I8
sVCD-HL
p81
I83
sVCD
p82
I20
sVDT+BEZ
p83
I108
sV,-HL
p84
I110
sVPPS+MD
p85
I117
sVCS
p86
I14
sVNP-TL
p87
I40
sVDO*
p88
I80
sVNN-NC
p89
I125
sVVB-HL
p90
I123
sVHVN
p91
I104
sVJJT
p92
I68
sVJJS
p93
I88
sVJJR
p94
I56
sVHVG
p95
I96
sVHVZ
p96
I51
sVNNS$-TL
p97
I138
sVCC-HL
p98
I124
sVJJ-TL
p99
I39
sVVBG-TL
p100
I121
sS'<unk>'
p101
I147
sVBEDZ*
p102
I115
sVDO
p103
I63
sVFW-JJ-TL
p104
I139
sVNP-HL
p105
I78
sV:-HL
p106
I119
sVNN-TL
p107
I21
sVPPSS
p108
I19
sVNR$
p109
I143
sV''
p110
I29
sVBER
p111
I38
sVCD-TL
p112
I69
sVDT
p113
I27
sVPN$
p114
I132
sVVB+PPO
p115
I141
sV)
I52
sVVBG-HL
p116
I116
sVPPO
p117
I23
sVPPL
p118
I65
sVPPS
p119
I15
sVTO
p120
I18
sVTO-HL
p121
I144
sVVB
p122
I11
sVOD-TL
p123
I106
sVFW-IN
p124
I134
sVPP$
p125
I17
sVRBT
p126
I129
sVABL
p127
I89
sVRBR
p128
I66
sVABN
p129
I45
sVAP
p130
I26
sVPPSS+HV
p131
I103
sVAT
p132
I3
sVIN
p133
I2
sVABX
p134
I72
sVHVD*
p135
I130
sV'
I92
sVPPS+HVD
p136
I135
sVNN$-TL
p137
I87
sVQLP
p138
I100
sVIN-TL
p139
I61
sVFW-NN
p140
I95
sVQL
p141
I30
sV.-HL
p142
I76
s.