(dp1
Vlimited
p2
I997
sVfig.
p3
I1511
sVcopy
p4
I2895
sVpersonally
p5
I2762
sVdesirable
p6
I3038
sVcolleges
p7
I2799
sVyellow
p8
I2007
sVfour
p9
I269
sVfacilities
p10
I1061
sVwoods
p11
I3989
sVsleep
p12
I1691
sVhanging
p13
I3664
sVconsists
p14
I2542
sVfirms
p15
I2011
sVcaptain
p16
I1260
sVsaved
p17
I2575
sVtowns
p18
I2203
sVpack
p19
I4007
sVforget
p20
I2067
sVrelationships
p21
I2904
sVwhose
p22
I380
sVfeeding
p23
I3983
sVpointing
p24
I3913
sVparis
p25
I1634
sVseriously
p26
I2371
sVpresents
p27
I3295
sVedward
p28
I2466
sVvoted
p29
I3855
sVg.
p30
I2612
sVunder
p31
I140
sVpatchen
p32
I3984
sVlord
p33
I1145
sVsorry
p34
I2269
sVpride
p35
I2618
sVworth
p36
I1125
sVbilly
p37
I3955
sVapparatus
p38
I3640
sVrisk
p39
I2069
sVblanket
p40
I3506
sVrise
p41
I1043
sVpenny
p42
I4110
sVshoot
p43
I3837
sVhandling
p44
I2901
sVevery
p45
I189
sVjack
p46
I1153
sVaffect
p47
I3093
sVbringing
p48
I2848
sVvast
p49
I1800
sVbelieved
p50
I1384
sVschool
p51
I188
sVprize
p52
I3689
sVwooden
p53
I2191
sVcompanies
p54
I1217
sVsolution
p55
I1862
sVfrozen
p56
I3809
sVred
p57
I491
sVsuccession
p58
I4023
sVbroadway
p59
I4210
sVmuscles
p60
I3468
sVsponsored
p61
I3557
sVheading
p62
I3414
sVclothes
p63
I1186
sVenjoy
p64
I2505
sVcharter
p65
I3245
sVforce
p66
I414
sVleaders
p67
I980
sVtired
p68
I2294
sVconsistent
p69
I3740
sVinvariably
p70
I3416
sVestimates
p71
I4171
sVdirect
p72
I794
sVelections
p73
I2153
sVsurrounding
p74
I3869
sVsecond
p75
I255
sVstreet
p76
I392
sVestimated
p77
I1619
sVmason
p78
I4122
sVmachines
p79
I2045
sVeven
p80
I94
sVestablished
p81
I968
sVerrors
p82
I2476
sVguilty
p83
I3627
sVchrist
p84
I1099
sVpace
p85
I2539
sVdecisions
p86
I2052
sVmeals
p87
I3908
sVselected
p88
I1439
sVorchestra
p89
I1836
sVfingers
p90
I1657
sVliberty
p91
I2376
sVlights
p92
I2359
sVabsolute
p93
I3474
sVabove
p94
I321
sVdr.
p95
I511
sVchurches
p96
I1105
sVnet
p97
I3166
sVincreasing
p98
I1444
sVever
p99
I280
sVconsisting
p100
I3856
sVtold
p101
I220
sVhero
p102
I2136
sVmen
p103
I131
sVstared
p104
I1833
sVhere
p105
I134
sVhundreds
p106
I2506
sVmet
p107
I772
sVprotection
p108
I1574
sVchina
p109
I1551
sVactive
p110
I1211
sVpath
p111
I2507
sV100
p112
I1389
sVfilms
p113
I3450
sVobtained
p114
I903
sVbalance
p115
I1177
sVdaughter
p116
I1491
sVcovers
p117
I3376
sVitems
p118
I1492
sVstudy
p119
I388
sVchanged
p120
I1123
sVapproaches
p121
I4013
sVreports
p122
I1276
sVcontroversy
p123
I3875
sVcredit
p124
I1709
sVsmoke
p125
I2670
sVpermit
p126
I1392
sVmilitary
p127
I450
sVsuitable
p128
I3190
sVchanges
p129
I785
sVmutual
p130
I3958
sVcriticism
p131
I2755
sVdiameter
p132
I2439
sVcarl
p133
I2685
sVcampaign
p134
I1335
sVexplained
p135
I1337
sVexcuse
p136
I3733
sVhighly
p137
I1134
sVbrought
p138
I378
sVvisible
p139
I3171
sVpound
p140
I3751
sVmoral
p141
I716
sVguests
p142
I1747
sVglance
p143
I2740
sVtotal
p144
I455
sVunit
p145
I1032
sVsarah
p146
I3881
sVplot
p147
I2924
sVspoke
p148
I1216
sVwould
p149
I46
sVarmy
p150
I777
sVshayne
p151
I3806
sVhospital
p152
I954
sVm.
p153
I1760
sVarms
p154
I860
sVsymphony
p155
I3263
sVmusic
p156
I437
sVtherefore
p157
I466
sVunfortunately
p158
I3277
sVstrike
p159
I2212
sVsurvive
p160
I3232
sVtype
p161
I480
sVuntil
p162
I197
sVseparated
p163
I2537
sVattractive
p164
I2838
sVholy
p165
I2256
sVsuccessful
p166
I1114
sVbrings
p167
I2770
sVwars
p168
I3939
sVaward
p169
I2396
sVaware
p170
I1271
sVparade
p171
I4109
sVglass
p172
I1072
sVberlin
p173
I1437
sVwarm
p174
I1625
sVadult
p175
I4072
sVshelters
p176
I4049
sVexcellent
p177
I1580
sVyard
p178
I3068
sVhole
p179
I1911
sVhold
p180
I593
sVmountains
p181
I2561
sVmust
p182
I102
sVme
p183
I93
sVword
p184
I353
sVroom
p185
I242
sVrights
p186
I1385
sVwork
p187
I132
sVroof
p188
I1876
sVmovies
p189
I3395
sVera
p190
I3481
sVhenry
p191
I1302
sVexceptions
p192
I3892
sVrevenues
p193
I3924
sVmy
p194
I86
sVexample
p195
I323
sVshook
p196
I1944
sVphrase
p197
I3147
sVindicated
p198
I967
sVgive
p199
I239
sVhousehold
p200
I3328
sVindia
p201
I1919
sVdiscovery
p202
I2433
sVinvolve
p203
I3405
sVindicates
p204
I2716
sVfoods
p205
I2151
sVwant
p206
I289
sVpeoples
p207
I3047
sVharold
p208
I3378
sVtimes
p209
I317
sVworse
p210
I2209
sVadmission
p211
I3265
sVend
p212
I223
sVrecovery
p213
I3574
sVthing
p214
I285
sVprovide
p215
I438
sVtravel
p216
I1780
sVsong
p217
I1550
sVfeature
p218
I2952
sVmachine
p219
I1024
sVhow
p220
I121
sVhot
p221
I791
sVwriters
p222
I1462
sVsignificance
p223
I1658
sVanswer
p224
I659
sVgate
p225
I2986
sVordinary
p226
I1484
sVbeach
p227
I1795
sVmassive
p228
I3286
sVbadly
p229
I3196
sVregional
p230
I2604
sVsupplied
p231
I3006
sVdescription
p232
I2051
sVbeauty
p233
I1524
sVinherent
p234
I3922
sVafter
p235
I98
sVcomplicated
p236
I3487
sVdavis
p237
I3801
sVwrong
p238
I792
sVlay
p239
I737
sVpresident
p240
I245
sVlaw
p241
I318
sVmeaningful
p242
I4213
sVparallel
p243
I2727
sVtypes
p244
I895
sVslavery
p245
I3267
sVpurchase
p246
I2360
sVattempt
p247
I1119
sVthird
p248
I516
sVdealer
p249
I4027
sVwherever
p250
I3797
sVheadquarters
p251
I1680
sVchildhood
p252
I2223
sVgreek
p253
I1787
sVmaintain
p254
I1842
sVgreen
p255
I897
sVultimate
p256
I1872
sVenter
p257
I1370
sVdemocratic
p258
I964
sVorder
p259
I251
sVwind
p260
I1721
sVwine
p261
I1480
sVoperations
p262
I1278
sVorigin
p263
I2509
sVinterpretation
p264
I2071
sVoffice
p265
I376
sVover
p266
I91
sVvary
p267
I3158
sVsatisfied
p268
I3052
sVguidance
p269
I2742
sVlondon
p270
I1189
sVjapan
p271
I2887
sVmayor
p272
I2871
sVbefore
p273
I101
sVfit
p274
I1412
sVpersonal
p275
I495
sVrevenue
p276
I3118
sV,
I2
sVwriting
p277
I894
sVbetter
p278
I219
sVmagnetic
p279
I3995
sVproduction
p280
I674
sVencounter
p281
I3710
sVglanced
p282
I4087
sVweeks
p283
I724
sVeasier
p284
I2171
sVshear
p285
I2773
sVsplit
p286
I3477
sVthen
p287
I82
sVcoffee
p288
I1363
sVrachel
p289
I2598
sVaffected
p290
I3016
sVcombination
p291
I1929
sVprevented
p292
I3789
sVweakness
p293
I2413
sVsafe
p294
I1885
sVfinish
p295
I2815
sVbreak
p296
I1209
sVband
p297
I2096
sVeffects
p298
I966
sVthey
p299
I36
sVschools
p300
I501
sVbronchial
p301
I3618
sValtogether
p302
I3475
sVyourself
p303
I1630
sVeisenhower
p304
I2213
sVbank
p305
I1293
sVbread
p306
I2703
sVcontributed
p307
I2839
sVrepresents
p308
I2807
sValex
p309
I3496
sVmeat
p310
I2459
sVoxygen
p311
I2524
sVreasonably
p312
I3145
sVbarton
p313
I3990
sVautomobile
p314
I2201
sVskills
p315
I2982
sVfilling
p316
I3025
sVnewport
p317
I3870
sVvictory
p318
I1790
sVreasonable
p319
I1692
sVeach
p320
I115
sVwent
p321
I181
sVentitled
p322
I1987
sVside
p323
I246
sVbone
p324
I3272
sVmean
p325
I485
sVlifted
p326
I2566
sVfinancial
p327
I1229
sVbillion
p328
I1757
sVfairly
p329
I1896
sVseries
p330
I789
sVinnocent
p331
I2954
sVprinciples
p332
I1513
sVjanuary
p333
I2098
sVwednesday
p334
I3065
sVvote
p335
I1415
sVused
p336
I160
sVtrading
p337
I4012
sVcorporations
p338
I4051
sVnavy
p339
I2967
sVlaboratory
p340
I2731
sVdawn
p341
I3700
sVward
p342
I4073
sVsaturday
p343
I1612
sVt.
p344
I3790
sVdeclaration
p345
I4137
sVgorton
p346
I3335
sVdriving
p347
I2114
sVgod
p348
I300
sVmotel
p349
I4195
sVwashed
p350
I3098
sVforty
p351
I3017
sVtomorrow
p352
I1715
sVcontent
p353
I2112
sVfellowship
p354
I3053
sVlaid
p355
I1382
sVsafety
p356
I2314
sVreader
p357
I2567
sVmedicine
p358
I3515
sVgot
p359
I191
sVnewly
p360
I3685
sVmillions
p361
I2250
sVforth
p362
I1514
sVindependence
p363
I1532
sVfoundation
p364
I2885
sVsept.
p365
I3152
sVturning
p366
I1416
sVassured
p367
I2808
sVu.s.
p368
I615
sVthreatened
p369
I3602
sVlittle
p370
I122
sVfree
p371
I369
sVstandard
p372
I952
sVancient
p373
I1568
sVformation
p374
I2987
sVrain
p375
I1548
sVchecked
p376
I3434
sVestimate
p377
I2787
sVwanted
p378
I421
sVstorm
p379
I3902
sVchlorine
p380
I3221
sVpublication
p381
I2029
sVenormous
p382
I2953
sVperform
p383
I3612
sVcreated
p384
I1326
sVstarts
p385
I3463
sVritual
p386
I4089
sVdays
p387
I243
sVbears
p388
I3972
sVmusicians
p389
I2663
sVfought
p390
I2379
sVtied
p391
I3205
sVarrived
p392
I1761
sVr.
p393
I1793
sVonto
p394
I1837
sVcleaning
p395
I2980
sVeileen
p396
I3947
sVindustrial
p397
I707
sVfeatures
p398
I1347
sVclinical
p399
I3859
sVgrade
p400
I3130
sVsupper
p401
I2916
sVprimary
p402
I1103
sVrank
p403
I4196
sVhearing
p404
I1404
sVwash
p405
I3248
sVphilosophical
p406
I3985
sVadopted
p407
I2427
sVanother
p408
I144
sVthick
p409
I1624
sVclarity
p410
I3722
sVelectronic
p411
I1575
sVmagnificent
p412
I3865
sVfence
p413
I3555
sVservice
p414
I301
sVsimilarly
p415
I3048
sVtop
p416
I472
sVgirls
p417
I713
sVreturns
p418
I3159
sVapproximately
p419
I1518
sVfiction
p420
I2377
sVneeded
p421
I521
sVrates
p422
I1042
sVtoo
p423
I120
sVtom
p424
I1737
sVdraft
p425
I4208
sVordered
p426
I1557
sVjohn
p427
I266
sVbitter
p428
I2108
sVdogs
p429
I1528
sVlisten
p430
I2158
sVurban
p431
I2608
sVceiling
p432
I3421
sVmurder
p433
I1426
sVmechanism
p434
I3694
sVtool
p435
I2748
sVlumber
p436
I3101
sVserve
p437
I983
sVtook
p438
I212
sVrejected
p439
I3288
sVjapanese
p440
I2111
sVwestern
p441
I745
sVsomewhat
p442
I822
sVshortly
p443
I3153
sVhorn
p444
I3432
sVmaintaining
p445
I3750
sVpeculiar
p446
I3759
sVbegins
p447
I2004
sVdistance
p448
I974
sVcomposer
p449
I3399
sVanxiety
p450
I2643
sVtarget
p451
I2467
sVshowed
p452
I722
sVtree
p453
I1865
sVlikely
p454
I665
sVseated
p455
I4181
sVnations
p456
I556
sVproject
p457
I1143
sVmatter
p458
I313
sVclasses
p459
I1261
sVguilt
p460
I3224
sVspeaking
p461
I1749
sVhistorical
p462
I1506
sVcharlie
p463
I2305
sVfeeling
p464
I574
sVpowers
p465
I1468
sVpoland
p466
I3292
sVbridge
p467
I1078
sVfashion
p468
I1570
sVsees
p469
I3041
sVpalace
p470
I2858
sVran
p471
I763
sVboston
p472
I1810
sVmodern
p473
I488
sVmind
p474
I290
sVmine
p475
I1868
sVanybody
p476
I2622
sVtalking
p477
I1059
sVseed
p478
I2689
sVmanner
p479
I837
sVseen
p480
I344
sVseem
p481
I416
sVseek
p482
I1566
sVtells
p483
I3149
sValive
p484
I1956
sVrelatively
p485
I1257
sVforced
p486
I1332
sVabroad
p487
I2164
sVstrength
p488
I742
sVgenuine
p489
I3206
sVconcrete
p490
I2284
sVthoroughly
p491
I2728
sVlatter
p492
I918
sVresponsible
p493
I1512
sV1960
p494
I579
sV1961
p495
I757
sV1962
p496
I3115
sVsound
p497
I469
sVchest
p498
I2084
sVsubjects
p499
I1317
sVabsorbed
p500
I4206
sVforces
p501
I557
sVlaughed
p502
I2187
sVeffectiveness
p503
I3343
sVexplanation
p504
I2546
sVcircles
p505
I3372
sVblue
p506
I701
sVnobody
p507
I1435
sVthough
p508
I204
sVobject
p509
I1681
sVmaris
p510
I3003
sVextending
p511
I3643
sVregular
p512
I1297
sVgermany
p513
I1318
sVlists
p514
I3148
sVletter
p515
I691
sVentry
p516
I3925
sVphase
p517
I1498
sVcontain
p518
I2473
sVgrave
p519
I3257
sVmorality
p520
I3587
sVyankees
p521
I3757
sVobservation
p522
I3781
sVtestament
p523
I3568
sVreleased
p524
I3949
sVmedical
p525
I618
sVcamp
p526
I1420
sVflow
p527
I1590
sVdog
p528
I1423
sVyours
p529
I4106
sVpoints
p530
I702
sVprinciple
p531
I962
sVdeeply
p532
I2822
sVnineteenth
p533
I2635
sVvoting
p534
I3530
sVconsumer
p535
I2891
sVsum
p536
I2435
sVcame
p537
I158
sVreserve
p538
I2925
sVd.
p539
I1673
sVsaying
p540
I924
sVcooking
p541
I3307
sVsimultaneously
p542
I2905
sVpope
p543
I2781
sVlewis
p544
I1928
sVmeetings
p545
I3723
sVqueen
p546
I2707
sVending
p547
I3464
sVlee
p548
I3161
sVcolors
p549
I2122
sVradio
p550
I868
sVasia
p551
I2528
sVrector
p552
I3238
sVearth
p553
I667
sVenjoyed
p554
I1939
sVpick
p555
I2009
sVorleans
p556
I2710
sVbusy
p557
I1912
sVjust
p558
I116
sVspite
p559
I1972
sVsituations
p560
I2156
sVexplain
p561
I1710
sVsentence
p562
I3213
sVsugar
p563
I3191
sVtheme
p564
I2008
sVtouched
p565
I2636
sVrich
p566
I1432
sVadequate
p567
I1651
sVrice
p568
I3222
sVpersonality
p569
I2287
sVwearing
p570
I2361
sVdo
p571
I83
sVmixture
p572
I3518
sVwide
p573
I835
sVetc.
p574
I1893
sVde
p575
I849
sVwatch
p576
I1329
sV13
p577
I2254
sVlegs
p578
I1614
sVcoast
p579
I1801
sVpocket
p580
I2393
sVwatson
p581
I2440
sVnew
p582
I74
sVreport
p583
I564
sVcoating
p584
I3056
sVdu
p585
I1515
sVu.n.
p586
I2126
sV14
p587
I1985
sVruns
p588
I2002
sVbar
p589
I1313
sVcountries
p590
I663
sVfields
p591
I1487
sVmethod
p592
I715
sVtwice
p593
I1452
sVbad
p594
I717
sVsoftly
p595
I3465
sVshots
p596
I3596
sVrelease
p597
I2970
sVautomatic
p598
I2766
sVsecretary
p599
I513
sVheaded
p600
I1850
sVethical
p601
I3594
sVvictim
p602
I3857
sVfair
p603
I1368
sVw.
p604
I1272
sVliquor
p605
I2559
sVtesting
p606
I3369
sVtransferred
p607
I3575
sVobserved
p608
I1453
sVdepends
p609
I2244
sVdecided
p610
I725
sVresult
p611
I393
sVcattle
p612
I1096
sVfail
p613
I2939
sVdesegregation
p614
I2711
sVbest
p615
I278
sVtechniques
p616
I1066
sVsaid
p617
I62
sVcapacity
p618
I1294
sVlots
p619
I2593
sVaway
p620
I199
sVgentleman
p621
I3695
sVcontinually
p622
I4015
sVpressures
p623
I2886
sVscore
p624
I1639
sVteaching
p625
I1632
sVcooperation
p626
I2793
sVdrawn
p627
I1529
sVapproach
p628
I845
sVrigid
p629
I4163
sVco.
p630
I2274
sVpreserve
p631
I3081
sVletting
p632
I3442
sVwe
p633
I48
sVnever
p634
I141
sVterms
p635
I612
sVextend
p636
I3386
sVnature
p637
I512
sVrolled
p638
I2295
sVconfusion
p639
I2508
sVaesthetic
p640
I3950
sVweak
p641
I3360
sVhowever
p642
I174
sVweekend
p643
I3782
sVtheresa
p644
I4147
sVsoutheast
p645
I3741
sVharvard
p646
I3212
sVdrew
p647
I1588
sVextent
p648
I947
sVnews
p649
I1036
sVatoms
p650
I2754
sVkitchen
p651
I1174
sVsuggested
p652
I1002
sVreceived
p653
I614
sVessentially
p654
I2335
sVaccident
p655
I3282
sVaccused
p656
I4018
sVbrown
p657
I553
sVreported
p658
I878
sVcountry
p659
I292
sVill
p660
I3966
sVcup
p661
I2431
sVheating
p662
I4123
sVagainst
p663
I156
sVplayers
p664
I3653
sVnegative
p665
I2095
sVgames
p666
I2026
sVplanned
p667
I1421
sVfaces
p668
I1504
sVdistinction
p669
I2668
sVcontribution
p670
I2983
sVexpense
p671
I2199
sVconfronted
p672
I3375
sVasked
p673
I230
sVsuggest
p674
I2060
sVpresumably
p675
I2720
sVtone
p676
I1364
sVappeared
p677
I753
sVcharacter
p678
I886
sVheight
p679
I3111
sVrepresented
p680
I1986
sVtons
p681
I3673
sVinitiative
p682
I3354
sVpolynomial
p683
I3696
sVtrust
p684
I2135
sVspeak
p685
I955
sVconference
p686
I1104
sVease
p687
I2638
sVproceeded
p688
I4050
sVsymbols
p689
I3004
sVbeef
p690
I3423
sVbasis
p691
I531
sVunion
p692
I535
sVthree
p693
I162
sVbeen
p694
I50
sV.
I3
sVcommission
p695
I1023
sVbeer
p696
I3099
sVmuch
p697
I107
sVinterest
p698
I288
sVbasic
p699
I589
sVexpected
p700
I523
sVdeliberately
p701
I3476
sVentered
p702
I1077
sVlovely
p703
I2484
sVwarmth
p704
I3731
sVduties
p705
I3187
sVthrew
p706
I2414
sVdry
p707
I1595
sVlife
p708
I138
sVpremier
p709
I3970
sVfamilies
p710
I1585
sVdeeper
p711
I2931
sVeastern
p712
I3364
sVdrugs
p713
I3742
sVconcerning
p714
I1774
sVrepublicans
p715
I3654
sVwoodruff
p716
I3511
sVdave
p717
I3387
sVsubstance
p718
I3246
sVchild
p719
I446
sVcatch
p720
I2589
sVworked
p721
I806
sVsad
p722
I3124
sVcolored
p723
I3412
sVapplied
p724
I995
sVcommerce
p725
I1913
sVexception
p726
I2746
sVhas
p727
I52
sVconviction
p728
I2195
sVpublicly
p729
I3813
sVgentle
p730
I3827
sVcastro
p731
I3365
sVair
p732
I375
sVaim
p733
I2961
sVnear
p734
I487
sVsuppose
p735
I1098
sVteachers
p736
I1564
sVleaves
p737
I2237
sVaid
p738
I760
sVproperty
p739
I640
sVemployees
p740
I1653
sVprocedure
p741
I1354
sVmistake
p742
I3207
sVseven
p743
I931
sVclimbed
p744
I2477
sVmetropolitan
p745
I3167
sVplayed
p746
I1019
sVis
p747
I10
sVit
p748
I16
sVexpenses
p749
I2345
sVthroat
p750
I2154
sVtissue
p751
I2655
sVexperts
p752
I2894
sVfled
p753
I3748
sVuncle
p754
I1957
sVin
p755
I8
sVspending
p756
I2700
sVpathology
p757
I3239
sVif
p758
I58
sVgrown
p759
I2583
sVcontaining
p760
I2446
sVlacking
p761
I3353
sVsoldier
p762
I2816
sVpatent
p763
I3085
sVthings
p764
I262
sVmake
p765
I126
sVwound
p766
I3711
sVbeside
p767
I1366
sVbacked
p768
I4142
sVcomplex
p769
I1165
sVharmony
p770
I3283
sVliberal
p771
I1561
sVseveral
p772
I248
sVshowing
p773
I1782
sVeuropean
p774
I1794
sVwheel
p775
I1981
sVindependent
p776
I1544
sVpublished
p777
I1192
sVhang
p778
I3884
sVevil
p779
I1485
sVhand
p780
I210
sVdelight
p781
I3620
sVcharacters
p782
I3062
sVconstitution
p783
I2249
sVhans
p784
I2482
sVinsisted
p785
I2570
sVopportunity
p786
I859
sVthoughts
p787
I2065
sVkid
p788
I1802
sVbutter
p789
I3836
sVkept
p790
I525
sVprograms
p791
I734
sVsettled
p792
I1558
sVsuffering
p793
I2514
sVocean
p794
I3154
sVintervals
p795
I4120
sVacademic
p796
I1964
sVmaterials
p797
I1097
sVgreatest
p798
I1204
sVqualities
p799
I2474
sVmother
p800
I440
sVclaims
p801
I1454
sVthe
p802
I1
sVmusical
p803
I1247
sVleft
p804
I193
sVopinions
p805
I2493
sVbirth
p806
I1640
sVproposed
p807
I1266
sVgolden
p808
I2592
sVhearst
p809
I2273
sVexpanding
p810
I3766
sVaside
p811
I1628
sVassigned
p812
I2076
sVidentify
p813
I3915
sVthanks
p814
I2926
sVhuman
p815
I319
sVfacts
p816
I1220
sVyes
p817
I698
sVyet
p818
I215
sVprevious
p819
I1237
sVthyroid
p820
I2906
sVdining
p821
I3717
sVunique
p822
I1897
sVhal
p823
I3666
sVhills
p824
I2205
sVcandidate
p825
I3214
sVsciences
p826
I3078
sVregarded
p827
I1979
sVhad
p828
I27
sVideal
p829
I1807
sVwright
p830
I2372
sVspread
p831
I1287
sVadvantages
p832
I3675
sVboard
p833
I401
sVeasy
p834
I838
sVprison
p835
I2639
sVeast
p836
I534
sVhat
p837
I1965
sVhumanity
p838
I3712
sVgave
p839
I333
sVshoulder
p840
I1804
sVmunicipal
p841
I3667
sVdignity
p842
I3112
sVsurvival
p843
I3310
sVpossible
p844
I253
sVsaddle
p845
I4061
sVinterior
p846
I1438
sVcultural
p847
I2027
sVjulia
p848
I3843
sVbackground
p849
I1633
sVdestroy
p850
I2290
sVjudge
p851
I1390
sVshadow
p852
I2990
sVfeelings
p853
I1803
sVadvanced
p854
I2115
sVapart
p855
I1938
sVdesire
p856
I1353
sVcounty
p857
I646
sVo'banion
p858
I3998
sVgift
p859
I3259
sV50
p860
I1806
sVspecific
p861
I907
sVsteps
p862
I872
sVofficer
p863
I1052
sVnight
p864
I221
sVhung
p865
I1671
sVsecurity
p866
I1162
sVtowards
p867
I1697
sVcharm
p868
I3896
sVattorney
p869
I1667
sVright
p870
I159
sVold
p871
I151
sVcontinuous
p872
I2500
sVdeal
p873
I700
sVpeople
p874
I118
sVsuccessfully
p875
I3446
sVsomehow
p876
I1475
sVdead
p877
I566
sVborn
p878
I927
sVclubs
p879
I4172
sVelection
p880
I1383
sVescape
p881
I1675
sVdear
p882
I2047
sVmultiple
p883
I3064
sVbore
p884
I4129
sVguess
p885
I1984
sVforgotten
p886
I2855
sVhumor
p887
I2353
sVfor
p888
I13
sVbottom
p889
I1193
sVestablish
p890
I1901
sVear
p891
I3617
sVnormal
p892
I750
sVmad
p893
I2843
sVice
p894
I2447
sVp.m.
p895
I1731
sVeverything
p896
I530
sVindividuals
p897
I1457
sVshakespeare
p898
I3489
sVdenied
p899
I2340
sVoffices
p900
I2461
sVchristmas
p901
I3814
sVparticipation
p902
I2656
sVcore
p903
I2560
sVsherman
p904
I3635
sVmarketing
p905
I2577
sVpayment
p906
I2078
sVdisappeared
p907
I3116
sVbinomial
p908
I3054
sVupward
p909
I3808
sVlosing
p910
I3724
sVpost
p911
I1254
sVmanufacturing
p912
I4207
sVproperties
p913
I1660
sVchapter
p914
I1465
sVincreasingly
p915
I2597
sVacquire
p916
I3787
sVdollars
p917
I1090
sVcitizens
p918
I1230
sVsubmarine
p919
I3893
sVo
I3961
sVdinner
p920
I1158
sVplus
p921
I1493
sVafternoon
p922
I992
sVhorizon
p923
I3858
sVshared
p924
I2717
sVefforts
p925
I823
sVslightly
p926
I1298
sVmarshal
p927
I3940
sVautomatically
p928
I3055
sVnixon
p929
I4026
sVfrontier
p930
I3549
sVconsiderations
p931
I3457
sVraised
p932
I1050
sVindians
p933
I3331
sVstatements
p934
I1598
sVformerly
p935
I3701
sVpresence
p936
I1409
sVcivil
p937
I1169
sVmarshall
p938
I3769
sVprofession
p939
I2927
sVbound
p940
I2624
sVintellectual
p941
I1643
sVtwo
p942
I80
sVdown
p943
I112
sVpair
p944
I2208
sVbeings
p945
I2997
sVmagazines
p946
I4063
sVdoctrine
p947
I2415
sVdean
p948
I2721
sVreducing
p949
I3404
sVfrightened
p950
I3916
sVmethods
p951
I711
sVcommunists
p952
I2797
sVexisted
p953
I2767
sVcrowd
p954
I2074
sVsupport
p955
I542
sVinitial
p956
I1603
sVknowing
p957
I2216
sVsovereign
p958
I3482
sVfight
p959
I1080
sVvirgin
p960
I3117
sVaccordingly
p961
I3409
sVjoseph
p962
I2017
sVeditor
p963
I1380
sVway
p964
I110
sVresulted
p965
I2955
sVcall
p966
I520
sVwas
p967
I11
sVwar
p968
I196
sVhappy
p969
I1079
sVselection
p970
I2844
sVhead
p971
I214
sVmedium
p972
I2448
sVamateur
p973
I4016
sVform
p974
I259
sVoffer
p975
I1348
sVattempted
p976
I3242
sVbecoming
p977
I1940
sVdifferences
p978
I1361
sVlanding
p979
I3894
sVford
p980
I4162
sVfailure
p981
I1188
sVheat
p982
I1092
sVhear
p983
I654
sVjustify
p984
I3906
sVremoved
p985
I1431
sVtrue
p986
I410
sVfort
p987
I2013
sVabsent
p988
I3732
sVprotestant
p989
I2179
sVinside
p990
I563
sVattached
p991
I4112
sVmaximum
p992
I1349
sVdevices
p993
I2956
sVtell
p994
I358
sVemotional
p995
I1602
sVreform
p996
I3485
sVstages
p997
I2162
sVpropaganda
p998
I3538
sS'<unk>'
p999
I4212
sVphil
p1000
I1668
sVproved
p1001
I1521
sVpuerto
p1002
I4157
sVclassic
p1003
I3021
sVstronger
p1004
I2977
sVabstract
p1005
I3208
sVrevealed
p1006
I2824
sVevidence
p1007
I471
sV''
p1008
I15
sVexist
p1009
I1856
sVpromised
p1010
I2455
sVprayer
p1011
I3674
sVship
p1012
I1288
sVmold
p1013
I2441
sVcheck
p1014
I1212
sVphysical
p1015
I739
sVdying
p1016
I3209
sVfloor
p1017
I634
sVwhereas
p1018
I2696
sVgenerally
p1019
I774
sVhanded
p1020
I2912
sVreality
p1021
I1359
sVsnakes
p1022
I3960
sVtim
p1023
I4116
sVinterested
p1024
I1003
sVrole
p1025
I1014
sVholding
p1026
I1686
sVpapers
p1027
I2157
sVtest
p1028
I870
sVenemies
p1029
I3820
sVsmell
p1030
I3198
sVroll
p1031
I3140
sVrealize
p1032
I1554
sVpicture
p1033
I616
sVquestioned
p1034
I3578
sVbrothers
p1035
I2684
sVo'clock
p1036
I2657
sVmodels
p1037
I2337
sVsurprise
p1038
I2166
sVpreceding
p1039
I3519
sVfelt
p1040
I274
sVfell
p1041
I1149
sVclimate
p1042
I3883
sVauthorities
p1043
I2819
sVhurt
p1044
I2938
sVtalents
p1045
I3749
sVdied
p1046
I1233
sVjones
p1047
I1501
sVyounger
p1048
I2532
sVreorganization
p1049
I3830
sVlonger
p1050
I509
sVn.
p1051
I3668
sVphone
p1052
I2070
sVassume
p1053
I1727
sVnormally
p1054
I3045
sVcontacts
p1055
I4064
sVdaily
p1056
I854
sVjacket
p1057
I3233
sVreception
p1058
I2872
sVteeth
p1059
I1030
sVpush
p1060
I2971
sVserious
p1061
I899
sVquantity
p1062
I3302
sVsongs
p1063
I1848
sVneighbors
p1064
I2782
sVdetective
p1065
I2145
sVconcept
p1066
I1248
sVmanaged
p1067
I3042
sVcorps
p1068
I948
sVaffair
p1069
I3254
sVdance
p1070
I1180
sVvarying
p1071
I2646
sVfocus
p1072
I2768
sVintegration
p1073
I2280
sVswept
p1074
I3172
sVroy
p1075
I2934
sVmanager
p1076
I1207
sVmile
p1077
I2299
sVcomments
p1078
I3508
sVgrateful
p1079
I4067
sVskin
p1080
I2334
sVbattle
p1081
I1213
sVchair
p1082
I1635
sVcreative
p1083
I2257
sVmilk
p1084
I2263
sVrow
p1085
I3077
sVdevoted
p1086
I2183
sVcow
p1087
I3591
sVcertainly
p1088
I705
sVhurry
p1089
I3020
sVdepend
p1090
I2460
sVprovidence
p1091
I1345
sVpromote
p1092
I3361
sVtechnique
p1093
I1843
sVfather
p1094
I533
sVpassage
p1095
I2238
sVenvironment
p1096
I2571
sVanswered
p1097
I1618
sVfinally
p1098
I515
sVasking
p1099
I1610
sVelectricity
p1100
I3903
sVsupplies
p1101
I2322
sVmarks
p1102
I3702
sVterror
p1103
I4107
sVdartmouth
p1104
I3483
sVsuffered
p1105
I2628
sVcircumstances
p1106
I1262
sVride
p1107
I2261
sVdivision
p1108
I982
sVsupported
p1109
I2057
sVadvantage
p1110
I1466
sVfrequencies
p1111
I3400
sVkeeping
p1112
I1826
sVchoice
p1113
I925
sVautomobiles
p1114
I4130
sVcongregation
p1115
I2323
sVadvised
p1116
I3234
sVcook
p1117
I2346
sVjoin
p1118
I1677
sVtrouble
p1119
I762
sVexact
p1120
I3770
sVminute
p1121
I1999
sVwore
p1122
I1685
sVhenrietta
p1123
I2666
sVclouds
p1124
I2865
sVimpressive
p1125
I2239
sVlevel
p1126
I445
sVdid
p1127
I99
sVdie
p1128
I1469
sVpermits
p1129
I3803
sVproposals
p1130
I3580
sVgun
p1131
I882
sVstandards
p1132
I1440
sVleave
p1133
I468
sVp
I1401
sVtheological
p1134
I3821
sVteam
p1135
I1283
sVquick
p1136
I1608
sVmovie
p1137
I3638
sVguy
p1138
I2148
sVround
p1139
I1414
sVparked
p1140
I3255
sVprevent
p1141
I1284
sVspiritual
p1142
I1703
sVrevolution
p1143
I1535
sVsays
p1144
I483
sVoccurrence
p1145
I3486
sVfindings
p1146
I3199
sVtrend
p1147
I2378
sVdealing
p1148
I2544
sVdiscover
p1149
I2774
sVsign
p1150
I1133
sVlinda
p1151
I2623
sVcost
p1152
I415
sVdried
p1153
I3743
sVrun
p1154
I451
sVrough
p1155
I2704
sVboats
p1156
I2161
sVappear
p1157
I892
sVassistance
p1158
I1226
sVshares
p1159
I2373
sVrome
p1160
I1537
sVcurrent
p1161
I1016
sV300
p1162
I4085
sVsuspect
p1163
I3490
sVgoes
p1164
I1184
sVinternational
p1165
I644
sVfalling
p1166
I3284
sVstaff
p1167
I938
sVcorn
p1168
I3174
sVfilled
p1169
I1067
sVtemperatures
p1170
I3959
sVsupporting
p1171
I3804
sVprocessing
p1172
I2874
sVjury
p1173
I1622
sVheavily
p1174
I1825
sVclerk
p1175
I3215
sVconcepts
p1176
I3822
sVfrench
p1177
I738
sVunderstanding
p1178
I857
sVwater
p1179
I203
sVbaseball
p1180
I1958
sVgroups
p1181
I832
sVaddress
p1182
I1379
sValone
p1183
I503
sValong
p1184
I275
sVstem
p1185
I3533
sVappears
p1186
I1268
sVchange
p1187
I398
sVwait
p1188
I1136
sVbox
p1189
I1530
sVboy
p1190
I395
sVarc
p1191
I2708
sVthirty
p1192
I1863
sVbrilliant
p1193
I2214
sVshift
p1194
I2690
sVstudied
p1195
I1351
sVshoulders
p1196
I2181
sVpetitioner
p1197
I3644
sVcommonly
p1198
I3589
sVproud
p1199
I2200
sVtrial
p1200
I759
sVaccomplished
p1201
I2478
sVchemical
p1202
I1831
sVfranklin
p1203
I3484
sVsuggestion
p1204
I3192
sVusually
p1205
I464
sVo.
p1206
I3597
sVbob
p1207
I2722
sVstudies
p1208
I1025
sVvigorous
p1209
I3572
sVengineer
p1210
I2632
sVtasks
p1211
I3604
sVlove
p1212
I409
sVtwenty-five
p1213
I4079
sVextra
p1214
I2192
sVmerely
p1215
I751
sVprefer
p1216
I3851
sVmarked
p1217
I1259
sVcontrols
p1218
I3544
sVdivorce
p1219
I3650
sVrarely
p1220
I2671
sVcrisis
p1221
I1305
sVmarket
p1222
I648
sVeverybody
p1223
I1502
sVpermitted
p1224
I1946
sVtroops
p1225
I2089
sVworking
p1226
I662
sVprove
p1227
I2097
sVsake
p1228
I2660
sVpositive
p1229
I1445
sVangry
p1230
I2452
sVvisit
p1231
I965
sVtears
p1232
I3200
sVfrance
p1233
I1429
sVlive
p1234
I550
sVwood
p1235
I2039
sVsleeping
p1236
I2798
sVopposed
p1237
I2653
sVmemory
p1238
I1410
sVnegroes
p1239
I1874
sVtape
p1240
I3067
sVassociated
p1241
I1792
sVcited
p1242
I4212
sVtoday
p1243
I334
sV``
p1244
I14
sVconductor
p1245
I4117
sVsessions
p1246
I3987
sVclub
p1247
I696
sVorganized
p1248
I1976
sVapparent
p1249
I1932
sVallies
p1250
I3495
sVdowntown
p1251
I2706
sVvisual
p1252
I2733
sVeverywhere
p1253
I2317
sVobservations
p1254
I2760
sVriding
p1255
I2425
sVcorresponding
p1256
I2890
sVcases
p1257
I676
sVeffort
p1258
I693
sVpiano
p1259
I2899
sVfly
p1260
I3296
sVorganizations
p1261
I1796
sVcar
p1262
I352
sVcap
p1263
I3829
sVsoul
p1264
I2362
sVbelieves
p1265
I2550
sVdistricts
p1266
I2882
sVvalues
p1267
I524
sVcan
p1268
I71
sVroyal
p1269
I2271
sVfollowing
p1270
I429
sVmaking
p1271
I377
sVcarolina
p1272
I4030
sVnewspapers
p1273
I2907
sVclaim
p1274
I1085
sVcrazy
p1275
I3168
sVmonths
p1276
I518
sVfigure
p1277
I457
sVrecalled
p1278
I3934
sVdecember
p1279
I1754
sVwinston
p1280
I2763
sVconfused
p1281
I2518
sVagent
p1282
I2530
sVsample
p1283
I1952
sVheard
p1284
I382
sVcritic
p1285
I4017
sVchin
p1286
I3999
sVdropped
p1287
I1048
sVcouncil
p1288
I1031
sVallowed
p1289
I1238
sVreminded
p1290
I3658
sVhydrogen
p1291
I2821
sVoccur
p1292
I2538
sVzen
p1293
I3910
sVpink
p1294
I2279
sVproductive
p1295
I4042
sVrequirements
p1296
I1295
sVwinter
p1297
I1285
sVrobinson
p1298
I2861
sVdiscussion
p1299
I1126
sVwatching
p1300
I1405
sVmagazine
p1301
I2796
sV1
I179
sVtill
p1302
I2248
sVsunday
p1303
I1047
sVvital
p1304
I1973
sVs.
p1305
I891
sVfourth
p1306
I1441
sVoptimal
p1307
I3725
sVmitchell
p1308
I3914
sVaxis
p1309
I2867
sVeconomy
p1310
I1350
sVcriminal
p1311
I4168
sVproduct
p1312
I1214
sVsamuel
p1313
I3210
sVcocktail
p1314
I4118
sVhuge
p1315
I2000
sVmay
p1316
I81
sVwonderful
p1317
I2103
sVfed
p1318
I2678
sVsouthern
p1319
I748
sVapplications
p1320
I4028
sVmembership
p1321
I1459
sVproduce
p1322
I1303
sVdesigned
p1323
I971
sVislands
p1324
I3512
sVdate
p1325
I1026
sVsuch
p1326
I88
sVtruly
p1327
I1941
sVdata
p1328
I569
sVgrow
p1329
I1728
sVrepeat
p1330
I3880
sVman
p1331
I92
sVstress
p1332
I984
sVnatural
p1333
I639
sVremember
p1334
I740
sVliquid
p1335
I2306
sVconscious
p1336
I2370
sVwhenever
p1337
I2578
sVmaybe
p1338
I767
sVexplicit
p1339
I4159
sVq
I2416
sVswitch
p1340
I2584
sVso
p1341
I61
sVsilence
p1342
I2119
sVafrican
p1343
I3761
sVtall
p1344
I2021
sVincrease
p1345
I502
sVpulled
p1346
I1456
sVtalk
p1347
I651
sVtypical
p1348
I1687
sVhoward
p1349
I3382
sVno.
p1350
I1714
sVacts
p1351
I2801
sVshoes
p1352
I2485
sVindeed
p1353
I617
sVpointed
p1354
I1450
sVmainly
p1355
I3449
sVprimitive
p1356
I2881
sVyears
p1357
I106
sVcourse
p1358
I195
sVexperiments
p1359
I1650
sVcuts
p1360
I3513
sVargued
p1361
I3648
sVdilemma
p1362
I4041
sVcold
p1363
I585
sVstill
p1364
I128
sVbirds
p1365
I1959
sVtendency
p1366
I2252
sVjess
p1367
I3226
sVgroup
p1368
I238
sVthank
p1369
I3057
sVtorn
p1370
I4065
sVinteresting
p1371
I1304
sVmantle
p1372
I2275
sVforms
p1373
I818
sVplatform
p1374
I1477
sVwindow
p1375
I875
sVoffers
p1376
I2462
sVsuspicion
p1377
I3824
sVpolicy
p1378
I428
sVmail
p1379
I2331
sVmain
p1380
I880
sVdecades
p1381
I3160
sVtexas
p1382
I1563
sVhappened
p1383
I672
sVcorrespondence
p1384
I4000
sVlonely
p1385
I4091
sVsacred
p1386
I2862
sVthereby
p1387
I3180
sVviews
p1388
I2184
sVnation
p1389
I736
sV1955
p1390
I3734
sVrecords
p1391
I1160
sV1957
p1392
I2288
sV1956
p1393
I3735
sV1953
p1394
I3931
sVhalf
p1395
I349
sVnot
p1396
I29
sVnow
p1397
I87
sV1959
p1398
I1039
sVhall
p1399
I658
sVnor
p1400
I500
sVwagon
p1401
I2028
sVterm
p1402
I1355
sVshouted
p1403
I2756
sVname
p1404
I322
sVlies
p1405
I2529
sVopera
p1406
I2336
sVjames
p1407
I1053
sVdrop
p1408
I1849
sVlocked
p1409
I3473
sVestablishing
p1410
I3926
sVpossibilities
p1411
I2619
sVrealistic
p1412
I3219
sVrock
p1413
I1424
sVentirely
p1414
I1163
sVquarter
p1415
I3141
sVconcerts
p1416
I3911
sVrealism
p1417
I4144
sVr
I2883
sVsquare
p1418
I704
sVfired
p1419
I2495
sVscheme
p1420
I3271
sVyeah
p1421
I4001
sVbegun
p1422
I2168
sVyear
p1423
I152
sVassumption
p1424
I2692
sVgirl
p1425
I433
sVworried
p1426
I3104
sVlesson
p1427
I3622
sVtried
p1428
I591
sVcanada
p1429
I3194
sVliving
p1430
I508
sVshown
p1431
I598
sVjackson
p1432
I3043
sVopened
p1433
I780
sVspace
p1434
I532
sVprofit
p1435
I3714
sVfurthermore
p1436
I2794
sVinterference
p1437
I2445
sVfactory
p1438
I3379
sVrational
p1439
I4068
sVlooking
p1440
I570
sVattracted
p1441
I4059
sVcontained
p1442
I1835
sVinvestigation
p1443
I2172
sVemerged
p1444
I3942
sVformula
p1445
I1877
sVprotected
p1446
I3467
sVreceiving
p1447
I3164
sVcorrect
p1448
I2142
sVshows
p1449
I1129
sVinevitably
p1450
I2873
sVe.
p1451
I1231
sVtheory
p1452
I796
sVstate
p1453
I123
sVcars
p1454
I942
sVmillion
p1455
I470
sVseventh
p1456
I3451
sVpossibility
p1457
I1218
sVquite
p1458
I341
sVcalifornia
p1459
I1690
sVbesides
p1460
I1659
sVpoems
p1461
I1307
sVmarine
p1462
I2033
sVinevitable
p1463
I3252
sVcard
p1464
I3932
sVcare
p1465
I619
sVadvance
p1466
I1869
sVtraining
p1467
I641
sVlanguage
p1468
I960
sVtransition
p1469
I3317
sVmodest
p1470
I3565
sVbritish
p1471
I885
sVhonest
p1472
I2355
sVmotion
p1473
I2038
sVturn
p1474
I408
sVplace
p1475
I171
sVvision
p1476
I1966
sVswing
p1477
I4198
sVpromotion
p1478
I3912
sVwidow
p1479
I3890
sVstar
p1480
I4011
sVthink
p1481
I208
sVwaited
p1482
I1546
sVfirst
p1483
I84
sVblind
p1484
I2312
sVflying
p1485
I2543
sVstriking
p1486
I2813
sVspoken
p1487
I2917
sVlegislation
p1488
I2410
sVvariables
p1489
I3969
sVfaculty
p1490
I1451
sVsymbolic
p1491
I3135
sVone
p1492
I39
sVwilliams
p1493
I3366
sVamericans
p1494
I1146
sVfast
p1495
I1374
sVdirectly
p1496
I723
sVspanish
p1497
I3049
sVcarry
p1498
I1201
sVimpossible
p1499
I1269
sVmessage
p1500
I1707
sVdrove
p1501
I1766
sVopen
p1502
I298
sVgeorge
p1503
I802
sV'em
p1504
I2672
sVsize
p1505
I741
sVcity
p1506
I236
sVgiven
p1507
I249
sVnecessarily
p1508
I2180
sVsheet
p1509
I2442
sVsilent
p1510
I2245
sVdistrict
p1511
I755
sVcaught
p1512
I1075
sVslept
p1513
I3862
sVdressed
p1514
I3005
sVplastic
p1515
I3380
sVanyone
p1516
I732
sVindicate
p1517
I1338
sVcooling
p1518
I2633
sV2
I202
sVtragic
p1519
I3269
sValfred
p1520
I2127
sVconvention
p1521
I3715
sVwhite
p1522
I265
sVstructures
p1523
I3452
sVframe
p1524
I1434
sVfriend
p1525
I765
sVgives
p1526
I919
sVeyes
p1527
I225
sVmostly
p1528
I2496
sVthat
p1529
I9
sVpittsburgh
p1530
I4002
sVseason
p1531
I1012
sVmoscow
p1532
I2342
sVuniverse
p1533
I1523
sVaccurately
p1534
I4164
sVjane
p1535
I3123
sVshock
p1536
I3469
sVflowers
p1537
I1950
sVrepresenting
p1538
I3559
sVthan
p1539
I69
sVpopulation
p1540
I749
sV11
p1541
I1768
sV10
p1542
I661
sVtelevision
p1543
I2219
sV12
p1544
I1109
sV15
p1545
I936
sVeffective
p1546
I795
sV17
p1547
I2691
sV16
p1548
I2064
sV19
p1549
I3355
sV18
p1550
I2023
sVrequire
p1551
I1236
sVcrowded
p1552
I3358
sVdiplomatic
p1553
I3716
sVnamely
p1554
I3289
sVfuture
p1555
I418
sVemphasis
p1556
I1902
sVwere
p1557
I41
sVcards
p1558
I3008
sVasleep
p1559
I3531
sVoutcome
p1560
I3951
sVrussia
p1561
I1489
sVtractor
p1562
I4165
sVand
p1563
I5
sVmountain
p1564
I3300
sVgathering
p1565
I3739
sVregister
p1566
I3928
sVsan
p1567
I1543
sVsam
p1568
I1357
sVremained
p1569
I998
sVappreciate
p1570
I3882
sVann
p1571
I3634
sVparking
p1572
I3470
sVturned
p1573
I296
sVargument
p1574
I1732
sVvoices
p1575
I2913
sVsay
p1576
I182
sVimpressions
p1577
I3992
sVanger
p1578
I2276
sVbreakfast
p1579
I2086
sVsaw
p1580
I277
sVany
p1581
I85
sVsat
p1582
I666
sVpublicity
p1583
I3849
sVoffering
p1584
I3760
sVcoal
p1585
I3338
sVefficient
p1586
I3356
sVveteran
p1587
I3805
sVmanufacturers
p1588
I2327
sVideas
p1589
I709
sVnote
p1590
I820
sVequipment
p1591
I595
sVmr.
p1592
I119
sVpotential
p1593
I1626
sVtake
p1594
I161
sVobjective
p1595
I1156
sVperformance
p1596
I848
sVwonder
p1597
I1611
sV200
p1598
I2911
sVbegin
p1599
I1277
sVsure
p1600
I366
sVpain
p1601
I1202
sVshade
p1602
I3747
sVtheatre
p1603
I3649
sVopposite
p1604
I1315
sVtrack
p1605
I2914
sVprice
p1606
I973
sVknew
p1607
I232
sVhealthy
p1608
I3276
sVpaid
p1609
I694
sVfalls
p1610
I3344
sVvisitors
p1611
I3027
sVprinted
p1612
I2993
sVsheets
p1613
I3492
sVremarks
p1614
I2109
sVknee
p1615
I3125
sVamerica
p1616
I506
sVpages
p1617
I3453
sVforever
p1618
I2830
sVoperate
p1619
I2270
sVespecially
p1620
I621
sVsurprising
p1621
I3560
sVcloth
p1622
I2572
sVconsidered
p1623
I664
sVgyro
p1624
I3917
sVaverage
p1625
I790
sVlater
p1626
I231
sVsteady
p1627
I2682
sVdrive
p1628
I1006
sVfederal
p1629
I386
sVslaves
p1630
I2525
sVnuclear
p1631
I901
sVprofessional
p1632
I1010
sVsenior
p1633
I3220
sVsalt
p1634
I2405
sVlaws
p1635
I1205
sVshop
p1636
I1736
sVwalking
p1637
I2059
sVshot
p1638
I937
sVdiscuss
p1639
I3754
sVshow
p1640
I328
sVgerman
p1641
I1255
sVfiled
p1642
I3258
sVpursuant
p1643
I3791
sVcontemporary
p1644
I1700
sVmerit
p1645
I3605
sVfifty
p1646
I1594
sVdiscovered
p1647
I1458
sVhopes
p1648
I2265
sVbright
p1649
I1224
sVcorner
p1650
I910
sVimagined
p1651
I3771
sVfifth
p1652
I2889
sVground
p1653
I526
sVfrequent
p1654
I3150
sVslow
p1655
I1838
sVratio
p1656
I3018
sVtitle
p1657
I1391
sVnodded
p1658
I2167
sVstained
p1659
I3736
sVproportion
p1660
I3592
sV3
I329
sVjunior
p1661
I1427
sVjew
p1662
I3929
sVonly
p1663
I72
sVgoing
p1664
I229
sVblack
p1665
I473
sVtreasury
p1666
I2723
sVthompson
p1667
I2908
sVenthusiasm
p1668
I3683
sVawareness
p1669
I3319
sVdispute
p1670
I3201
sVlighted
p1671
I3655
sVget
p1672
I135
sVcontracts
p1673
I4193
sVassistant
p1674
I3034
sVjazz
p1675
I1068
sVmission
p1676
I1373
sVkansas
p1677
I3462
sVcannot
p1678
I372
sVnearly
p1679
I726
sVinvited
p1680
I3930
sVinstalled
p1681
I3066
sVmorse
p1682
I3607
sVsecondary
p1683
I3439
sVprime
p1684
I2464
sVreveal
p1685
I3546
sVregarding
p1686
I2749
sVartist
p1687
I1948
sVseldom
p1688
I3165
sVthermal
p1689
I3227
sVyield
p1690
I3131
sVmorning
p1691
I454
sVnaked
p1692
I3381
sVnetwork
p1693
I3553
sVmiles
p1694
I568
sVbombs
p1695
I3082
sVwhere
p1696
I108
sVhusband
p1697
I781
sVignored
p1698
I3656
sVdeclared
p1699
I1636
sVconcert
p1700
I2814
sVburst
p1701
I3225
sVcommitted
p1702
I3755
sVcomparable
p1703
I2688
sVseat
p1704
I2048
sVrelative
p1705
I2400
sVelected
p1706
I3270
sVj.
p1707
I865
sVcollege
p1708
I361
sVreaders
p1709
I2957
sVhell
p1710
I1118
sVstanley
p1711
I3136
sVcalendar
p1712
I3703
sVconnected
p1713
I3294
sVperformed
p1714
I3122
sVconcern
p1715
I1083
sVsurfaces
p1716
I3688
sVkate
p1717
I2687
sVmaturity
p1718
I2791
sVways
p1719
I810
sVjumped
p1720
I3126
sVreview
p1721
I1992
sVdefinite
p1722
I2940
sVrepresentatives
p1723
I2661
sVweapons
p1724
I1791
sVoutside
p1725
I456
sVbureau
p1726
I2574
sVbetween
p1727
I136
sVevidently
p1728
I4099
sVreading
p1729
I720
sVacross
p1730
I338
sVnotice
p1731
I1878
sVjobs
p1732
I1682
sVaugust
p1733
I2077
sVscreen
p1734
I2282
sVplanes
p1735
I3897
sV26
p1736
I3359
sVcheap
p1737
I4151
sVrapidly
p1738
I1683
sVblame
p1739
I3188
sVclayton
p1740
I3852
sVarticle
p1741
I1586
sVcities
p1742
I985
sVcome
p1743
I154
sVrecall
p1744
I2800
sVconcentrated
p1745
I3478
sVreaction
p1746
I839
sVdates
p1747
I3514
sVpanels
p1748
I2384
sVwally
p1749
I4056
sVmany
p1750
I100
sVregion
p1751
I1403
sVsympathetic
p1752
I3094
sVaccording
p1753
I729
sVcontract
p1754
I1821
sVsomewhere
p1755
I1828
sVtour
p1756
I2545
sVsenator
p1757
I2750
sVexpression
p1758
I1352
sVscope
p1759
I3823
sVcomes
p1760
I743
sVnearby
p1761
I2468
sVduty
p1762
I1808
sVamong
p1763
I258
sVsba
p1764
I4083
sVcancer
p1765
I4052
sVcolor
p1766
I730
sVshirt
p1767
I3794
sVpot
p1768
I3744
sVcolony
p1769
I3691
sVperiod
p1770
I362
sVfootball
p1771
I3007
sV60
p1772
I2385
sVmaintained
p1773
I2300
sVstretched
p1774
I3216
sVlearning
p1775
I1840
sVapproval
p1776
I2165
sVmoreover
p1777
I1199
sVcrew
p1778
I3002
sVboat
p1779
I1494
sVmoore
p1780
I4184
sVconsidering
p1781
I2320
sVsave
p1782
I1748
sVarts
p1783
I1645
sVcapable
p1784
I1637
sVstretch
p1785
I3962
sVwest
p1786
I406
sVinformed
p1787
I1942
sVvacation
p1788
I2328
sVmark
p1789
I1299
sVbreath
p1790
I2083
sVworkshop
p1791
I4190
sVcombined
p1792
I2734
sVpeaceful
p1793
I3988
sVstaring
p1794
I3879
sVhardly
p1795
I994
sVmary
p1796
I1227
sVwants
p1797
I1473
sVdirection
p1798
I758
sVtransportation
p1799
I2556
sVoffered
p1800
I1292
sVformed
p1801
I1396
sVdramatic
p1802
I1718
sVminister
p1803
I1809
sVstems
p1804
I3253
sVcareful
p1805
I1770
sVformer
p1806
I778
sVthose
p1807
I117
sVpilot
p1808
I2490
sVcase
p1809
I267
sVmyself
p1810
I800
sVdeveloping
p1811
I2124
sVthese
p1812
I79
sVisolated
p1813
I3134
sVmount
p1814
I3952
sVengineering
p1815
I2391
sVcast
p1816
I2434
sVcure
p1817
I3686
sVachieve
p1818
I2150
sVovercome
p1819
I3977
sVpolicies
p1820
I1592
sVresidence
p1821
I3636
sVnewspaper
p1822
I1669
sVsituation
p1823
I494
sVeugene
p1824
I4088
sVpasses
p1825
I3873
sVshouting
p1826
I3340
sVconferences
p1827
I4075
sVeventually
p1828
I2141
sVdetermination
p1829
I2842
sVsoil
p1830
I2053
sVengaged
p1831
I2309
sVthem
p1832
I70
sVquiet
p1833
I1398
sVmiddle
p1834
I884
sVgood
p1835
I124
sVdrug
p1836
I4158
sVsomebody
p1837
I1892
sVtechnology
p1838
I2535
sVworry
p1839
I2034
sVmovements
p1840
I2363
sVdifferent
p1841
I308
sVmissiles
p1842
I3347
sVdevelop
p1843
I1183
sVvivid
p1844
I4019
sVdoctor
p1845
I1064
sVpay
p1846
I581
sVgranted
p1847
I1974
sVlocking
p1848
I3426
sVsame
p1849
I143
sVtrip
p1850
I1330
sVpoetic
p1851
I3458
sVspeech
p1852
I1805
sVa.m.
p1853
I2777
sVstepped
p1854
I2779
sVconstructed
p1855
I2988
sVevents
p1856
I1049
sVweek
p1857
I348
sVoil
p1858
I1120
sVcenturies
p1859
I2411
sVfoam
p1860
I2929
sVdriver
p1861
I2259
sVdirector
p1862
I1044
sVpersons
p1863
I858
sVrunning
p1864
I846
sVedges
p1865
I2918
sVwidespread
p1866
I3563
sVdelicate
p1867
I3793
sVintended
p1868
I2424
sVchanging
p1869
I2510
sVtradition
p1870
I1130
sVapproaching
p1871
I3853
sVallowances
p1872
I4054
sVtheater
p1873
I2125
sVlargely
p1874
I1596
sVpennsylvania
p1875
I2463
sVno
p1876
I59
sVconstitutional
p1877
I4069
sVroughly
p1878
I4077
sVsevere
p1879
I2831
sVcosts
p1880
I551
sVrelief
p1881
I1641
sVbottle
p1882
I1407
sVcommunications
p1883
I3752
sVmodel
p1884
I1386
sVgrounds
p1885
I1895
sVscientists
p1886
I3035
sVbodies
p1887
I1695
sVcharged
p1888
I1951
sVsummer
p1889
I761
sVoutdoor
p1890
I3783
sVbeing
p1891
I139
sVmoney
p1892
I363
sVdancers
p1893
I3459
sVrest
p1894
I611
sVcommunities
p1895
I2697
sVviolent
p1896
I3303
sVkill
p1897
I1742
sVactor
p1898
I4150
sVaspect
p1899
I2364
sVsilver
p1900
I3586
sVtouch
p1901
I1219
sVn
I2864
sVspeed
p1902
I1289
sVjefferson
p1903
I3798
sVblow
p1904
I3304
sVannouncement
p1905
I4173
sVdeath
p1906
I345
sVnick
p1907
I4020
sVthinking
p1908
I697
sVrose
p1909
I1242
sVseems
p1910
I368
sVexcept
p1911
I541
sVimprovement
p1912
I2712
sVinstrument
p1913
I2349
sVverse
p1914
I3676
sVsetting
p1915
I1820
sVpile
p1916
I4078
sV4
I462
sVsamples
p1917
I3659
sVrepublic
p1918
I2549
sVstruck
p1919
I1847
sVstructural
p1920
I4024
sVreal
p1921
I370
sVaspects
p1922
I1704
sVaround
p1923
I173
sVrules
p1924
I1256
sVspecimen
p1925
I4160
sVvirginia
p1926
I1419
sVdark
p1927
I529
sVtraffic
p1928
I1572
sVinsist
p1929
I3792
sVlistening
p1930
I2832
sVworld
p1931
I127
sVrailroad
p1932
I1922
sVaccepted
p1933
I1111
sVlady
p1934
I1340
sVvague
p1935
I4101
sVrear
p1936
I2163
sVfurniture
p1937
I2835
sVsatisfaction
p1938
I3745
sVfortune
p1939
I4003
sVadams
p1940
I2599
sVstranger
p1941
I2771
sVkennedy
p1942
I733
sVcollective
p1943
I3351
sVserves
p1944
I2968
sVfacing
p1945
I3218
sVchamber
p1946
I2388
sVaudience
p1947
I905
sVeither
p1948
I335
sVclay
p1949
I1056
sVserved
p1950
I877
sVreduced
p1951
I1356
sVtwelve
p1952
I2266
sVsatisfactory
p1953
I2788
sVjews
p1954
I2066
sVexposed
p1955
I3184
sVcompetition
p1956
I1719
sVlucy
p1957
I2444
sVcalculated
p1958
I3108
sVeddie
p1959
I3510
sVcellar
p1960
I3898
sVrespect
p1961
I830
sVimages
p1962
I2932
sVroot
p1963
I3488
sVquestionnaire
p1964
I2978
sVdivine
p1965
I3143
sVbigger
p1966
I3176
sVmatching
p1967
I3273
sVprovided
p1968
I776
sVmood
p1969
I2935
sVtube
p1970
I3406
sVrecorded
p1971
I2552
sVlegal
p1972
I1495
sVmoon
p1973
I1829
sVcritical
p1974
I1923
sVbridges
p1975
I3981
sVprovides
p1976
I1325
sVknife
p1977
I1397
sVleaned
p1978
I2909
sVmeasuring
p1979
I3561
sVwelcome
p1980
I2218
sVassembly
p1981
I2193
sVscientific
p1982
I1244
sVpower
p1983
I282
sVseconds
p1984
I3810
sVpapa
p1985
I2778
sVequivalent
p1986
I2399
sVunusual
p1987
I1738
sVbroken
p1988
I1729
sVmeets
p1989
I3087
sVleadership
p1990
I1148
sVinnocence
p1991
I3677
sVexciting
p1992
I3576
sVthrow
p1993
I2625
sVearlier
p1994
I684
sVlock
p1995
I4128
sVon
p1996
I20
sVstone
p1997
I1914
sVcentral
p1998
I601
sVstations
p1999
I1252
sVisland
p2000
I597
sVindustry
p2001
I584
sVviolence
p2002
I2417
sVdiscussed
p2003
I1672
sVthousands
p2004
I2368
sVpractical
p2005
I1605
sVtremendous
p2006
I2984
sVjourney
p2007
I3680
sVstand
p2008
I678
sVact
p2009
I336
sVmixed
p2010
I2969
sVluck
p2011
I2333
sVor
p2012
I33
sVroad
p2013
I492
sVquietly
p2014
I2264
sVlands
p2015
I4053
sVroute
p2016
I2555
sVutterly
p2017
I3786
sVburning
p2018
I2258
sVreactions
p2019
I2594
sVcommunication
p2020
I1620
sVimage
p2021
I873
sVskilled
p2022
I3493
sVvariable
p2023
I2991
sVsecure
p2024
I3507
sVrising
p2025
I1750
sVlively
p2026
I3877
sVdetermine
p2027
I990
sVparties
p2028
I1857
sVoperator
p2029
I2246
sVvaluable
p2030
I2457
sVhappening
p2031
I3681
sVyour
p2032
I109
sVupstairs
p2033
I3728
sVher
p2034
I42
sVarea
p2035
I293
sVassumed
p2036
I1500
sVstrictly
p2037
I3260
sVthere
p2038
I45
sVphiladelphia
p2039
I2226
sVglasses
p2040
I3571
sVchristianity
p2041
I3471
sVstrip
p2042
I3540
sVstart
p2043
I649
sVpoured
p2044
I3642
sVlow
p2045
I572
sVlot
p2046
I819
sVsale
p2047
I2522
sVvalley
p2048
I1471
sVfish
p2049
I3114
sVhanover
p2050
I1662
sVcomplete
p2051
I538
sVenough
p2052
I211
sVregard
p2053
I1191
sVdelayed
p2054
I4004
sVsophisticated
p2055
I3943
sVbrain
p2056
I2451
sVsucceeded
p2057
I3241
sVtrying
p2058
I609
sVwith
p2059
I17
sVbuying
p2060
I3503
sVhandsome
p2061
I2757
sVpull
p2062
I2147
sVoctober
p2063
I2173
sVarranged
p2064
I2486
sVromantic
p2065
I3357
sVpond
p2066
I4094
sVvice
p2067
I2675
sVnearest
p2068
I4136
sVtaught
p2069
I2207
sVdirty
p2070
I2994
sV1954
p2071
I2398
sVgrass
p2072
I2080
sVbuilders
p2073
I3776
sVagree
p2074
I2159
sVdetailed
p2075
I2123
sVgone
p2076
I498
sVvehicles
p2077
I2113
sVhated
p2078
I3707
sVjohnny
p2079
I3526
sVaf
p2080
I103
sVtaste
p2081
I1852
sVcertain
p2082
I304
sVaj
p2083
I883
sVmoved
p2084
I540
sVsales
p2085
I766
sVdeep
p2086
I963
sVan
p2087
I35
sVimagination
p2088
I1670
sVas
p2089
I18
sVconservative
p2090
I3411
sVat
p2091
I23
sVfile
p2092
I1328
sVaids
p2093
I3780
sVwatched
p2094
I1316
sVmoves
p2095
I3019
sVportland
p2096
I4141
sVfilm
p2097
I1110
sVfill
p2098
I2221
sVagain
p2099
I170
sVpersonnel
p2100
I1425
sVstorage
p2101
I2674
sVvocational
p2102
I1387
sVinsurance
p2103
I2389
sVfield
p2104
I351
sV5
I718
sVyou
p2105
I40
sVthousand
p2106
I1091
sVpoor
p2107
I929
sVbriefly
p2108
I2897
sVcongress
p2109
I657
sVseparate
p2110
I1362
sVstudents
p2111
I447
sVsymbol
p2112
I2073
sVtime
p2113
I77
sVmiriam
p2114
I3527
sVa.
p2115
I933
sVimportant
p2116
I260
sVmassachusetts
p2117
I2227
sVaccounts
p2118
I2896
sVincluded
p2119
I1093
sVpool
p2120
I945
sVjuniors
p2121
I3392
sVfiscal
p2122
I867
sVremote
p2123
I3337
sVcalls
p2124
I1549
sVwife
p2125
I417
sVcurve
p2126
I2450
sVsounded
p2127
I3109
sVobserve
p2128
I4100
sVmass
p2129
I1082
sVadam
p2130
I2512
sVremarkable
p2131
I2365
sVstarting
p2132
I1589
sVoriginal
p2133
I1027
sVexternal
p2134
I2579
sVrepresent
p2135
I2876
sVall
p2136
I43
sVconsider
p2137
I821
sVchinese
p2138
I1977
sVcaused
p2139
I1173
sVsuburban
p2140
I3595
sVlack
p2141
I956
sVdollar
p2142
I2401
sVmonth
p2143
I786
sVblanche
p2144
I4044
sVcoach
p2145
I4197
sVsubtle
p2146
I4038
sVwelfare
p2147
I2093
sVfollow
p2148
I1094
sVsettlement
p2149
I3964
sVreligious
p2150
I600
sVchildren
p2151
I276
sVcauses
p2152
I1883
sVparticles
p2153
I2605
sVapartment
p2154
I1320
sVcoolidge
p2155
I3979
sVchain
p2156
I2194
sVhunting
p2157
I3202
sVtv
p2158
I2825
sVsubjected
p2159
I4174
sVencourage
p2160
I2369
sVopportunities
p2161
I2189
sVspirit
p2162
I536
sVto
p2163
I6
sVtail
p2164
I4178
sVprogram
p2165
I235
sVcommander
p2166
I3737
sVsmile
p2167
I1915
sVpresentation
p2168
I3261
sVassist
p2169
I3895
sVactivities
p2170
I911
sVwoman
p2171
I423
sVappointment
p2172
I3727
sVreturned
p2173
I908
sVvirtue
p2174
I3525
sVsitting
p2175
I1102
sVvery
p2176
I125
sVramey
p2177
I3684
sVhughes
p2178
I3816
sVfat
p2179
I1846
sVresistance
p2180
I2293
sVsons
p2181
I3660
sVworst
p2182
I3175
sVdecide
p2183
I2718
sVfall
p2184
I681
sVwinning
p2185
I3430
sVdifference
p2186
I677
sVcondition
p2187
I1161
sVabandoned
p2188
I4097
sVleads
p2189
I3275
sVheaven
p2190
I2580
sVwashing
p2191
I2487
sVmothers
p2192
I4055
sV--
p2193
I38
sVlouis
p2194
I1464
sVlist
p2195
I764
sVjoined
p2196
I1983
sVlarge
p2197
I268
sVsang
p2198
I3567
sVsand
p2199
I3669
sVharry
p2200
I3105
sVsmall
p2201
I176
sVbench
p2202
I3097
sVsmith
p2203
I2061
sVneighborhood
p2204
I1924
sVten
p2205
I605
sVtea
p2206
I3599
sVstreets
p2207
I1818
sVcash
p2208
I3009
sVpast
p2209
I339
sVrate
p2210
I458
sVperception
p2211
I3621
sVdesign
p2212
I915
sVperspective
p2213
I3986
sVlawyer
p2214
I2557
sVpass
p2215
I1182
sVfurther
p2216
I436
sVinvestment
p2217
I2536
sVconscience
p2218
I2744
sVtrustees
p2219
I4058
sVwhat
p2220
I63
sVstood
p2221
I452
sVdarkness
p2222
I2581
sVrichard
p2223
I1525
sVsun
p2224
I941
sVsection
p2225
I517
sVlawrence
p2226
I2846
sVbrief
p2227
I1461
sVemotions
p2228
I2582
sVthickness
p2229
I2516
sVversion
p2230
I2081
sVattitudes
p2231
I2307
sVdestroyed
p2232
I2845
sVlearned
p2233
I889
sVpublic
p2234
I205
sVcontrast
p2235
I1446
sVmovement
p2236
I808
sVfull
p2237
I412
sVchristian
p2238
I699
sVeditorial
p2239
I2609
sVestate
p2240
I2155
sVeternal
p2241
I3625
sVloose
p2242
I2100
sVcomponent
p2243
I4080
sVballet
p2244
I2423
sVanswers
p2245
I2498
sVhours
p2246
I561
sVoperating
p2247
I1221
sVexcess
p2248
I2595
sVdirections
p2249
I3520
sVnovember
p2250
I1433
sVstrong
p2251
I474
sVtragedy
p2252
I2240
sVsearch
p2253
I1647
sVbible
p2254
I1870
sVnaval
p2255
I3243
sVahead
p2256
I959
sVdifficulty
p2257
I1408
sVinspired
p2258
I4005
sVlosses
p2259
I2397
sVjohnnie
p2260
I3887
sVexperience
p2261
I346
sVprior
p2262
I2310
sVamount
p2263
I580
sVlaughing
p2264
I3762
sVthursday
p2265
I3279
sVadvertising
p2266
I2196
sVgear
p2267
I3982
sVsocial
p2268
I247
sVaction
p2269
I324
sVnarrow
p2270
I1730
sVmyra
p2271
I3846
sVstruggle
p2272
I1773
sVvia
p2273
I2296
sVfollowed
p2274
I575
sVfamily
p2275
I287
sVsuddenly
p2276
I655
sVmarginal
p2277
I3886
sVafrica
p2278
I2430
sVmarriages
p2279
I3800
sVput
p2280
I206
sVregiment
p2281
I4103
sVaimed
p2282
I4186
sVtrained
p2283
I2062
sVouter
p2284
I3437
sVsuits
p2285
I4070
sVarmed
p2286
I1834
sVgolf
p2287
I3182
sVreadily
p2288
I2568
sVlanguages
p2289
I2729
sVconventional
p2290
I2149
sVeye
p2291
I851
sVtakes
p2292
I1240
sVdistinct
p2293
I2645
sVobjectives
p2294
I2840
sVcontains
p2295
I2888
sVcharge
p2296
I852
sVsitter
p2297
I4179
sV6
I916
sVtaken
p2298
I340
sVchicken
p2299
I2989
sVinjury
p2300
I3807
sVmarkets
p2301
I3410
sVminor
p2302
I1908
sVmore
p2303
I57
sVhorses
p2304
I1604
sVflat
p2305
I1613
sVdoor
p2306
I305
sVknows
p2307
I1071
sVdefinition
p2308
I2849
sVjr.
p2309
I1413
sVcompany
p2310
I325
sVemission
p2311
I3367
sVtelephone
p2312
I1411
sVtested
p2313
I2919
sVstick
p2314
I2847
sVbroke
p2315
I1486
sVparticular
p2316
I548
sVknown
p2317
I391
sVmounted
p2318
I2456
sVproducing
p2319
I3070
sVsovereignty
p2320
I3682
sVglad
p2321
I2898
sVtown
p2322
I453
sVskywave
p2323
I3326
sVnone
p2324
I972
sVhour
p2325
I689
sVstrain
p2326
I3396
sVscience
p2327
I779
sVequation
p2328
I3262
sVentertainment
p2329
I3624
sVroosevelt
p2330
I3705
sVremain
p2331
I1141
sVsudden
p2332
I2860
sVnine
p2333
I1324
sVresources
p2334
I1474
sVmorgan
p2335
I1490
sVlearn
p2336
I1264
sVknocked
p2337
I3389
sVmale
p2338
I2972
sVhistory
p2339
I330
sVbeautiful
p2340
I814
sVcompare
p2341
I3706
sVstated
p2342
I1250
sVpont
p2343
I3119
sVshare
p2344
I1086
sVaccept
p2345
I1481
sVstates
p2346
I163
sVpushed
p2347
I2087
sVminimum
p2348
I1579
sVnumbers
p2349
I827
sVsense
p2350
I309
sVsharp
p2351
I1503
sVswung
p2352
I2292
sVdress
p2353
I1629
sVspecies
p2354
I2962
sVf.
p2355
I1859
sVfirmly
p2356
I2253
sV!
I78
sVinformation
p2357
I357
sVneeds
p2358
I656
sVcourt
p2359
I413
sVgoal
p2360
I1830
sVrather
p2361
I254
sVdepartments
p2362
I4021
sVcomfort
p2363
I2590
sVpressing
p2364
I4076
sVconducted
p2365
I2024
sVstayed
p2366
I1428
sVoccasionally
p2367
I2272
sVpossibly
p2368
I1785
sVrecording
p2369
I3440
sVplant
p2370
I834
sVplans
p2371
I940
sVadvice
p2372
I2134
sVderived
p2373
I2841
sVexpenditures
p2374
I2453
sVreflect
p2375
I4119
sVreplace
p2376
I3523
sVplane
p2377
I920
sVblood
p2378
I856
sVcoming
p2379
I559
sVpat
p2380
I3095
sVresponse
p2381
I1393
sVa
I7
sVshort
p2382
I449
sVsusan
p2383
I2936
sVcoat
p2384
I2558
sVquoted
p2385
I3967
sVauthor
p2386
I2409
sVperhaps
p2387
I314
sVshore
p2388
I1784
sVresponsibility
p2389
I887
sVfundamental
p2390
I2215
sVbanks
p2391
I2963
sVpleasure
p2392
I1758
sVdream
p2393
I1708
sVplaying
p2394
I1051
sVreplied
p2395
I1930
sVmexican
p2396
I4153
sVhelp
p2397
I310
sVseptember
p2398
I1982
sVdeveloped
p2399
I590
sVsoon
p2400
I484
sVfabrics
p2401
I3652
sVtrade
p2402
I710
sVheld
p2403
I365
sVattitude
p2404
I986
sValready
p2405
I355
sVthrough
p2406
I104
sVcommittee
p2407
I594
sVsigns
p2408
I1573
sVexistence
p2409
I979
sVsmiling
p2410
I2995
sVsuffer
p2411
I3274
sVavenue
p2412
I2380
sVits
p2413
I65
sVroots
p2414
I3772
sV24
p2415
I2291
sV25
p2416
I1311
sVstyle
p2417
I1084
sV27
p2418
I3944
sV20
p2419
I1151
sV21
p2420
I2343
sV22
p2421
I2402
sV23
p2422
I2366
sVgreatly
p2423
I1755
sVfate
p2424
I3256
sVunity
p2425
I1522
sVactually
p2426
I599
sVlate
p2427
I547
sVabsence
p2428
I2099
sVparts
p2429
I939
sVsystems
p2430
I793
sVattended
p2431
I3063
sVremarked
p2432
I3325
sVcross
p2433
I2015
sVfactories
p2434
I4187
sVcool
p2435
I1769
sVmight
p2436
I149
sVfool
p2437
I2945
sVevening
p2438
I768
sVreturn
p2439
I544
sVcalm
p2440
I3129
sVseeking
p2441
I2501
sVfood
p2442
I680
sVcomponents
p2443
I2040
sVreflected
p2444
I2610
sVinch
p2445
I2837
sVwalls
p2446
I1539
sVbullet
p2447
I3713
sVfoot
p2448
I1536
sVsen.
p2449
I3504
sVassociation
p2450
I775
sVinstructions
p2451
I3080
sVmystery
p2452
I2802
sVeasily
p2453
I988
sVinstances
p2454
I3562
sValways
p2455
I198
sVpresented
p2456
I1310
sVcourses
p2457
I1781
sVsomeone
p2458
I1132
sVstopped
p2459
I798
sVeager
p2460
I3826
sVfiber
p2461
I3872
sVturns
p2462
I2852
sVfound
p2463
I177
sVfriendship
p2464
I3848
sVreferred
p2465
I2443
sVheavy
p2466
I949
sVstatus
p2467
I1089
sVharm
p2468
I4081
sVeveryone
p2469
I1131
sVengland
p2470
I652
sVmental
p2471
I2585
sVweight
p2472
I1159
sVgeneration
p2473
I2042
sVhouse
p2474
I167
sVenergy
p2475
I1065
sVhard
p2476
I475
sVreduce
p2477
I1762
sVidea
p2478
I499
sVbrother
p2479
I1470
sVextended
p2480
I2005
sVexpect
p2481
I975
sVfist
p2482
I4082
sVmeasurement
p2483
I3181
sVoperation
p2484
I926
sVbeyond
p2485
I558
sVevent
p2486
I1333
sVreally
p2487
I350
sVanxious
p2488
I3590
sVmissed
p2489
I2735
sVwondered
p2490
I1909
sVitem
p2491
I2020
sVrobert
p2492
I1290
sVsince
p2493
I155
sVresearch
p2494
I583
sVacting
p2495
I1812
sVconclusions
p2496
I3014
sVhealth
p2497
I1011
sVhill
p2498
I1478
sV7
I1127
sVissue
p2499
I660
sVoccurs
p2500
I3773
sVhighway
p2501
I2736
sVconceived
p2502
I3796
sVbelief
p2503
I1705
sVdirt
p2504
I2553
sVdestructive
p2505
I4074
sVfriday
p2506
I1822
sVstory
p2507
I653
sVpleasant
p2508
I2877
sVhouses
p2509
I1281
sVreason
p2510
I396
sVbase
p2511
I1164
sVmembers
p2512
I291
sVimagine
p2513
I1786
sVask
p2514
I805
sVequipped
p2515
I3015
sVteach
p2516
I2705
sVbeginning
p2517
I604
sVguest
p2518
I2804
sVthrown
p2519
I2751
sVdriven
p2520
I2533
sVowners
p2521
I3106
sVbenefits
p2522
I3298
sVterrible
p2523
I2471
sVamerican
p2524
I172
sVfruit
p2525
I3086
sVpure
p2526
I1978
sVleading
p2527
I1582
sVconsequence
p2528
I3547
sVfallen
p2529
I3155
sV1952
p2530
I3427
sVfeed
p2531
I853
sVmajor
p2532
I384
sVprobability
p2533
I3089
sVupper
p2534
I1499
sVfeel
p2535
I441
sVradical
p2536
I3556
sVnumber
p2537
I194
sVcontributions
p2538
I3663
sVfeet
p2539
I337
sVsympathy
p2540
I3046
sVstaining
p2541
I2933
sVtalked
p2542
I1890
sVdone
p2543
I297
sVfees
p2544
I3629
sVwages
p2545
I2614
sVmiss
p2546
I379
sVladies
p2547
I3746
sVhorse
p2548
I890
sVheads
p2549
I2551
sVtemperature
p2550
I754
sVjet
p2551
I3606
sVintroduction
p2552
I2805
sVtwenty
p2553
I1344
sVst.
p2554
I607
sVthreatening
p2555
I3905
sVleast
p2556
I281
sVplayer
p2557
I2176
sVpaint
p2558
I2947
sVstation
p2559
I1008
sVpassed
p2560
I638
sVmama
p2561
I2502
sVmaster
p2562
I1472
sVhundred
p2563
I582
sVchallenge
p2564
I3036
sVstore
p2565
I1442
sVlisted
p2566
I2491
sVselling
p2567
I3436
sVkids
p2568
I3308
sVstatement
p2569
I727
sVrelationship
p2570
I1197
sVbehind
p2571
I371
sVjohnson
p2572
I3193
sVhotel
p2573
I826
sVpark
p2574
I1135
sVimmediate
p2575
I1322
sVpart
p2576
I183
sVfavorable
p2577
I3299
sVrifle
p2578
I1720
sVnorms
p2579
I4188
sVbelieve
p2580
I482
sVconvinced
p2581
I2232
sVpercentage
p2582
I2421
sVfred
p2583
I3871
sVreflection
p2584
I3333
sVdiffusion
p2585
I4154
sVking
p2586
I1195
sVkind
p2587
I303
sVb
I1005
sVdouble
p2588
I1993
sVinstruction
p2589
I3923
sVranging
p2590
I3550
sVyouth
p2591
I1314
sVnevertheless
p2592
I1460
sVdetermined
p2593
I874
sVmarriage
p2594
I1115
sVsupposed
p2595
I1678
sVsister
p2596
I2870
sVtoward
p2597
I240
sVtreated
p2598
I1430
sVbuilder
p2599
I3582
sVmickey
p2600
I3613
sVranch
p2601
I3845
sVaug.
p2602
I4084
sVoutstanding
p2603
I2979
sVages
p2604
I2185
sVgreenwich
p2605
I3844
sVsubstantial
p2606
I1644
sVconcentration
p2607
I2357
sVorders
p2608
I1905
sVsell
p2609
I2654
sVlie
p2610
I1880
sVwilson
p2611
I1756
sVnights
p2612
I3280
sVbuilt
p2613
I1034
sVzero
p2614
I4140
sVdancing
p2615
I2586
sVsuperior
p2616
I2383
sVself
p2617
I2789
sVofficers
p2618
I1296
sVonset
p2619
I2878
sValso
p2620
I97
sVwithout
p2621
I169
sVbuild
p2622
I1245
sVsharpe
p2623
I3479
sVfinding
p2624
I2106
sVseized
p2625
I4202
sVplay
p2626
I479
sVadded
p2627
I577
sVelectric
p2628
I1581
sVretired
p2629
I3137
sValbert
p2630
I3610
sVeggs
p2631
I3073
sVsets
p2632
I1779
sVreach
p2633
I1013
sVbreaking
p2634
I4060
sVmost
p2635
I95
sVbrooklyn
p2636
I3637
sVhired
p2637
I4006
sVexperiences
p2638
I2102
sVplan
p2639
I467
sVsignificant
p2640
I1234
sV70
p2641
I4199
sVnothing
p2642
I222
sVfaint
p2643
I4093
sVwisdom
p2644
I2492
sVmeasured
p2645
I1648
sVapproved
p2646
I2775
sVachievement
p2647
I1688
sVstands
p2648
I1609
sVsalary
p2649
I2554
sVdealers
p2650
I3497
sVwindows
p2651
I2116
sVperformances
p2652
I3291
sVclear
p2653
I434
sVsometimes
p2654
I430
sVcover
p2655
I1198
sVtraditional
p2656
I1367
sVpart-time
p2657
I3889
sVartistic
p2658
I3287
sVclean
p2659
I1571
sVvelocity
p2660
I3936
sVbarrel
p2661
I4126
sVscholarship
p2662
I3050
sVtubes
p2663
I4131
sVinstitutions
p2664
I1081
sVlying
p2665
I3010
sVthomas
p2666
I1058
sVparticularly
p2667
I686
sVphenomenon
p2668
I3071
sVgold
p2669
I2130
sVdoctors
p2670
I3541
sVrayburn
p2671
I2826
sVpermission
p2672
I3812
sVsession
p2673
I1339
sVrelation
p2674
I1740
sVfreight
p2675
I3729
sVcarefully
p2676
I1222
sVexcessive
p2677
I3500
sVuniform
p2678
I2177
sVfine
p2679
I624
sVfind
p2680
I227
sVoccupation
p2681
I4127
sVimpact
p2682
I1615
sVaccess
p2683
I4143
sVregulations
p2684
I3615
sVnorthern
p2685
I2341
sVjustice
p2686
I912
sVstairs
p2687
I2350
sVwrites
p2688
I2683
sVwriter
p2689
I1463
sVdistributed
p2690
I3839
sVunhappy
p2691
I3945
sVgrace
p2692
I2737
sVfailed
p2693
I1447
sVindian
p2694
I2138
sVpretty
p2695
I978
sVfactor
p2696
I1509
sV8
I996
sVcircle
p2697
I1841
sVcolumns
p2698
I2996
sVhis
p2699
I19
sVhit
p2700
I922
sVmeanwhile
p2701
I3090
sVdependent
p2702
I2772
sVexpress
p2703
I2600
sVfinancing
p2704
I3211
sVtrees
p2705
I1046
sVfamous
p2706
I1185
sVfeels
p2707
I2428
sVgrew
p2708
I1693
sVactions
p2709
I1583
sVclosely
p2710
I1642
sVreply
p2711
I2649
sVduring
p2712
I168
sVhim
p2713
I49
sValexander
p2714
I2458
sVenemy
p2715
I1206
sVappeal
p2716
I1734
sVroles
p2717
I3197
sVcry
p2718
I2283
sVremove
p2719
I1906
sVcommon
p2720
I425
sVactivity
p2721
I898
sVriver
p2722
I603
sVwrote
p2723
I539
sVfishing
p2724
I3346
sVcharacteristics
p2725
I2143
sVbars
p2726
I2783
sVset
p2727
I218
sVart
p2728
I459
sVgrain
p2729
I3874
sVachieved
p2730
I1771
sVintelligence
p2731
I2308
sVuses
p2732
I1860
sVtended
p2733
I4167
sVsex
p2734
I1267
sVmatsuo
p2735
I3079
sVculture
p2736
I1886
sVsee
p2737
I129
sVdefense
p2738
I596
sVbare
p2739
I3646
sVare
p2740
I30
sVsea
p2741
I1116
sVfellow
p2742
I1739
sVclose
p2743
I407
sVarm
p2744
I1137
sVchose
p2745
I2937
sVpacific
p2746
I3424
sVpreparation
p2747
I2058
sVpractice
p2748
I1138
sVevaluation
p2749
I3397
sVspirits
p2750
I2513
sVexpert
p2751
I3494
sVvisiting
p2752
I3059
sVpictures
p2753
I1576
sVleg
p2754
I1898
sVplease
p2755
I1776
sVlibraries
p2756
I3767
sVunions
p2757
I3662
sVwon
p2758
I1587
sVvarious
p2759
I477
sVmanagers
p2760
I4135
sVprobably
p2761
I367
sVburned
p2762
I2764
sVweekly
p2763
I4152
sVconditions
p2764
I543
sVfuneral
p2765
I3285
sVsixth
p2766
I3885
sVmeal
p2767
I3534
sVeurope
p2768
I888
sVlatin
p2769
I2225
sVrecently
p2770
I841
sViron
p2771
I2576
sVunconscious
p2772
I3532
sVmissing
p2773
I3228
sVsold
p2774
I2324
sVattention
p2775
I546
sVlunch
p2776
I3235
sVaircraft
p2777
I1547
sVopposition
p2778
I2422
sVbride
p2779
I3290
sVlegislature
p2780
I2827
sVboth
p2781
I137
sVc
I861
sVlast
p2782
I147
sVlicense
p2783
I3028
sVdesired
p2784
I2211
sVcrime
p2785
I3100
sVannual
p2786
I1147
sVforeign
p2787
I632
sVsensitive
p2788
I1879
sVconnection
p2789
I1552
sVbecame
p2790
I389
sVcontext
p2791
I3121
sVresidential
p2792
I2438
sVlong-term
p2793
I3330
sVtangent
p2794
I3941
sVbond
p2795
I2406
sVwhole
p2796
I312
sVfinds
p2797
I1882
sVexperimental
p2798
I2856
sVload
p2799
I2465
sVliked
p2800
I1900
sVyards
p2801
I1711
sVpoint
p2802
I233
sVsimple
p2803
I627
sVsweet
p2804
I1559
sVloan
p2805
I2407
sVcommunity
p2806
I411
sVsurplus
p2807
I3799
sVdancer
p2808
I3441
sVsimply
p2809
I587
sVchurch
p2810
I279
sVsing
p2811
I3183
sVthroughout
p2812
I721
sVexpensive
p2813
I2488
sVbelt
p2814
I3569
sVdecline
p2815
I3447
sVdevil
p2816
I4104
sVdescribed
p2817
I863
sVraise
p2818
I2129
sVcreate
p2819
I2054
sVacceptance
p2820
I2242
sVpolitical
p2821
I373
sVdue
p2822
I714
sVteacher
p2823
I1336
sVwhom
p2824
I687
sVsecret
p2825
I1369
sVdamn
p2826
I3352
sVmaintenance
p2827
I1698
sVlaos
p2828
I1701
sVcollected
p2829
I2517
sVapplying
p2830
I3598
sVterritory
p2831
I3461
sVmeeting
p2832
I631
sVchandler
p2833
I3345
sVempty
p2834
I1694
sVtreatment
p2835
I815
sVfirm
p2836
I958
sVlived
p2837
I904
sVpartly
p2838
I2247
sVgay
p2839
I3542
sVsending
p2840
I3146
sVfire
p2841
I522
sVcitizen
p2842
I3517
sVgas
p2843
I1069
sVprecision
p2844
I2382
sVelse
p2845
I552
sVfund
p2846
I1752
sVunderstand
p2847
I744
sVrepresentative
p2848
I2338
sVfolklore
p2849
I3756
sVdemand
p2850
I1037
sVprices
p2851
I1788
sVdespite
p2852
I1015
sVseventeen
p2853
I4161
sVextensive
p2854
I2531
sVplants
p2855
I1875
sVgeorgia
p2856
I2403
sVconception
p2857
I3334
sVlook
p2858
I228
sVraw
p2859
I2588
sVsolid
p2860
I1394
sVstraight
p2861
I917
sVbill
p2862
I703
sVbudget
p2863
I1855
sVgovernor
p2864
I1291
sVreceive
p2865
I1406
sVwhile
p2866
I146
sVreplaced
p2867
I2630
sVmatch
p2868
I2695
sVbehavior
p2869
I1113
sVerror
p2870
I3012
sVfun
p2871
I2503
sVp.
p2872
I1903
sVguide
p2873
I3000
sVengineers
p2874
I3306
sVscheduled
p2875
I2884
sV30
p2876
I943
sVhoping
p2877
I3551
sVcentury
p2878
I460
sVcents
p2879
I3918
sVgrinned
p2880
I3491
sVowen
p2881
I4033
sVmotors
p2882
I2202
sVsuspended
p2883
I3539
sVencountered
p2884
I3516
sVitself
p2885
I315
sVanode
p2886
I1381
sVready
p2887
I706
sVlimit
p2888
I2278
sVcarbon
p2889
I3501
sVneutral
p2890
I2833
sVexamine
p2891
I3236
sVsaline
p2892
I3417
sVfunny
p2893
I2667
sVitaly
p2894
I3178
sVmyth
p2895
I3102
sVgrant
p2896
I2315
sVbelong
p2897
I2946
sVtextile
p2898
I3764
sVread
p2899
I562
sVvirtually
p2900
I2699
sVwidely
p2901
I2146
sVgrand
p2902
I2267
sV9
I1751
sVresulting
p2903
I2564
sVdozen
p2904
I2118
sVcomposition
p2905
I4008
sVconflict
p2906
I2133
sVhigher
p2907
I626
sVdevelopment
p2908
I283
sVliterature
p2909
I769
sVtemporary
p2910
I3332
sVd.c.
p2911
I4034
sVaffairs
p2912
I1263
sVkeys
p2913
I3217
sVassignment
p2914
I1759
sVgallery
p2915
I3393
sVfelix
p2916
I3505
sVyesterday
p2917
I1300
sValert
p2918
I3264
sVmoment
p2919
I385
sVlevels
p2920
I1562
sVmoving
p2921
I923
sVpurpose
p2922
I671
sVnecessity
p2923
I2758
sVrecent
p2924
I545
sVearly
p2925
I264
sVlower
p2926
I842
sVtask
p2927
I1819
sVbonds
p2928
I2339
sVolder
p2929
I1144
sVsalvation
p2930
I3318
sVsubstantially
p2931
I3032
sVdepending
p2932
I3320
sVspent
p2933
I1017
sVanalysis
p2934
I977
sVobviously
p2935
I913
sVperson
p2936
I560
sVedge
p2937
I1378
sVmachinery
p2938
I1823
sVorganization
p2939
I809
sVspend
p2940
I2090
sVprevention
p2941
I3840
sVknow
p2942
I145
sVholmes
p2943
I2959
sVhonored
p2944
I4182
sVjudgments
p2945
I3860
sV-
I1371
sVcompetitive
p2946
I3425
sVsnow
p2947
I1873
sVshape
p2948
I1249
sVopenly
p2949
I3195
sVatomic
p2950
I2390
sVquestions
p2951
I728
sVusing
p2952
I688
sVuseful
p2953
I1921
sValternative
p2954
I3151
sVprince
p2955
I3244
sVwage
p2956
I1970
sVtables
p2957
I2519
sVporch
p2958
I2591
sVcut
p2959
I510
sVhelping
p2960
I2520
sVwaste
p2961
I3127
sVmajority
p2962
I1960
sVjurisdiction
p2963
I3619
sVworkers
p2964
I1243
sVdanger
p2965
I1545
sVrecommended
p2966
I2392
sVexclusively
p2967
I4175
sVsignals
p2968
I3639
sVsource
p2969
I1128
sVinternal
p2970
I1763
sVparents
p2971
I1157
sVlocation
p2972
I1722
sVcontrary
p2973
I2144
sVruled
p2974
I3435
sVadministrative
p2975
I2105
sVremaining
p2976
I2686
sVsurprised
p2977
I1916
sVchairman
p2978
I1621
sVassociations
p2979
I3548
sVwaves
p2980
I2174
sVcustomers
p2981
I2769
sVmarch
p2982
I855
sVdoors
p2983
I3033
sVemergency
p2984
I2790
sVdemands
p2985
I2010
sVbig
p2986
I271
sVcouple
p2987
I847
sVmatters
p2988
I1702
sVgame
p2989
I843
sVlogical
p2990
I3179
sVstudio
p2991
I3420
sVdamage
p2992
I3247
sVbit
p2993
I1054
sVwings
p2994
I3831
sVprojects
p2995
I1599
sVformal
p2996
I2285
sVpromising
p2997
I4138
sVsubsequent
p2998
I3628
sVlost
p2999
I567
sVfollows
p3000
I1395
sVsignal
p3001
I1724
sVpounds
p3002
I2497
sVshapes
p3003
I3632
sVflux
p3004
I3543
sVarthur
p3005
I2169
sVcontinue
p3006
I981
sVpopular
p3007
I1076
sVessential
p3008
I1331
sVmathematical
p3009
I4189
sVoften
p3010
I261
sVurethane
p3011
I3920
sVsenate
p3012
I1764
sVspring
p3013
I817
sVb.
p3014
I1400
sVcreation
p3015
I2386
sVsome
p3016
I75
sVback
p3017
I105
sVunderstood
p3018
I1920
sVlips
p3019
I1556
sVeconomic
p3020
I394
sVmighty
p3021
I3588
sVexamples
p3022
I2091
sVsight
p3023
I1286
sVmirror
p3024
I3841
sVcurious
p3025
I2394
sVpale
p3026
I1904
sVourselves
p3027
I1664
sVdelivered
p3028
I2964
sVgradually
p3029
I2170
sVscale
p3030
I1844
sVdull
p3031
I3833
sVsoutherners
p3032
I3971
sVtools
p3033
I3204
sVdecision
p3034
I871
sVshall
p3035
I359
sVbenefit
p3036
I1713
sVper
p3037
I256
sVreligion
p3038
I879
sVcivilization
p3039
I2611
sVeliminate
p3040
I3980
sVtends
p3041
I3177
sVanne
p3042
I2652
sVworship
p3043
I3026
sVtemple
p3044
I2902
sVminimal
p3045
I3832
sVt
I1388
sVbe
p3046
I21
sVmeasures
p3047
I2251
sVpatient
p3048
I1241
sVremembered
p3049
I1301
sVpalmer
p3050
I1994
sVcontinuing
p3051
I1813
sVagreement
p3052
I993
sVrefused
p3053
I1824
sVstep
p3054
I782
sVnowhere
p3055
I3552
sVsanta
p3056
I3692
sVoutput
p3057
I3069
sVby
p3058
I24
sVhandled
p3059
I3948
sVfaith
p3060
I946
sVgoods
p3061
I1945
sVanything
p3062
I342
sVcigarette
p3063
I4095
sVfiring
p3064
I4200
sVmrs.
p3065
I178
sVdrama
p3066
I2587
sVrange
p3067
I637
sVinvolving
p3068
I3268
sVallotment
p3069
I2817
sVtogether
p3070
I360
sVmouth
p3071
I1022
sVconsequently
p3072
I3418
sVfarmers
p3073
I3278
sVblock
p3074
I1661
sVseeing
p3075
I1232
sVplenty
p3076
I2025
sVinto
p3077
I68
sVwithin
p3078
I273
sVoperational
p3079
I4121
sVservices
p3080
I735
sVappropriate
p3081
I1600
sVprimarily
p3082
I1696
sVreturning
p3083
I3113
sVframes
p3084
I3946
sVextraordinary
p3085
I3398
sVsports
p3086
I2255
sVimpressed
p3087
I3498
sVprestige
p3088
I3630
sVeleven
p3089
I2714
sVconfidence
p3090
I1968
sVextremely
p3091
I2222
sVplacing
p3092
I3778
sVquestion
p3093
I374
sVlong
p3094
I133
sVu.
p3095
I1765
sVgermans
p3096
I3777
sVsuit
p3097
I2286
sVforward
p3098
I906
sVandy
p3099
I3240
sV:
I67
sVsections
p3100
I1542
sVconsiderably
p3101
I2479
sVhimself
p3102
I164
sVarise
p3103
I3718
sVelsewhere
p3104
I2454
sVinches
p3105
I1239
sVjewish
p3106
I1448
sVprecise
p3107
I3297
sVhoped
p3108
I2301
sVboys
p3109
I708
sVproperly
p3110
I2018
sVatlantic
p3111
I2713
sVlibrary
p3112
I1746
sVatom
p3113
I2973
sVrussian
p3114
I1342
sVline
p3115
I320
sVwedding
p3116
I3323
sVconsiderable
p3117
I1100
sVraising
p3118
I3169
sVdirected
p3119
I1606
sVcharacteristic
p3120
I1597
sVsounds
p3121
I2022
sVup
p3122
I64
sVus
p3123
I148
sVmobile
p3124
I2526
sVexploration
p3125
I4086
sVmature
p3126
I3407
sVboards
p3127
I2318
sVsimilar
p3128
I636
sVcalled
p3129
I226
sVbath
p3130
I3900
sVcurt
p3131
I3321
sVv
I3847
sVconstant
p3132
I1508
sVdefined
p3133
I2810
sVmetal
p3134
I1815
sVspecified
p3135
I3704
sVinfluence
p3136
I771
sVentrance
p3137
I1934
sVsingle
p3138
I578
sVwarning
p3139
I2511
sVlegend
p3140
I3927
sVnationalism
p3141
I3083
sVracial
p3142
I4031
sVcotton
p3143
I2875
sVoct.
p3144
I3698
sVamounts
p3145
I2483
sVpeace
p3146
I486
sVfears
p3147
I2316
sVoccasional
p3148
I2974
sVapplication
p3149
I1578
sVreputation
p3150
I3785
sVelectrical
p3151
I2412
sVincome
p3152
I961
sVdepartment
p3153
I422
sVnice
p3154
I1399
sVdraw
p3155
I1988
sVelements
p3156
I987
sVgross
p3157
I1646
sVenterprise
p3158
I3422
sVproblems
p3159
I383
sVprepared
p3160
I1040
sVwilliam
p3161
I679
sVmeaning
p3162
I811
sVallowing
p3163
I3402
sVsmiled
p3164
I1507
sVcharming
p3165
I4133
sVsides
p3166
I1063
sVstructure
p3167
I1171
sVdimensions
p3168
I3502
sVago
p3169
I387
sVurged
p3170
I3103
sVlane
p3171
I3480
sVland
p3172
I435
sVe
I2719
sVpractically
p3173
I2110
sVage
p3174
I419
sVrequired
p3175
I537
sVholes
p3176
I2828
sVwalked
p3177
I630
sVnotion
p3178
I2741
sVdepth
p3179
I2088
sVcarrying
p3180
I1526
sVliterally
p3181
I3854
sVfar
p3182
I213
sVfresh
p3183
I1308
sVrequires
p3184
I1936
sVhaving
p3185
I343
sVonce
p3186
I184
sVcode
p3187
I2811
sVadvisory
p3188
I4149
sVoral
p3189
I3838
sVissued
p3190
I2210
sVresults
p3191
I670
sVexisting
p3192
I1839
sVillustrated
p3193
I2975
sVfog
p3194
I4025
sVgo
p3195
I157
sVbomb
p3196
I3013
sVadjustment
p3197
I3138
sVmercer
p3198
I1516
sVcenters
p3199
I2137
sVissues
p3200
I1649
sVseemed
p3201
I284
sVdetergent
p3202
I4098
sVconcerned
p3203
I756
sVyoung
p3204
I241
sVsend
p3205
I1449
sVnose
p3206
I1832
sVliterary
p3207
I1365
sVhelps
p3208
I3443
sVstable
p3209
I3521
sVsuite
p3210
I3834
sVinclude
p3211
I932
sVfriendly
p3212
I1783
sVsent
p3213
I692
sVrandom
p3214
I2880
sVwished
p3215
I2043
sVgarden
p3216
I1827
sVscattered
p3217
I3811
sVcontinues
p3218
I2701
sVschedule
p3219
I3051
sVwave
p3220
I2375
sVelectron
p3221
I3600
sVputting
p3222
I2055
sVsensitivity
p3223
I3665
sVtelling
p3224
I2120
sVartery
p3225
I2404
sVdrinking
p3226
I2281
sVcontinued
p3227
I770
sVcategories
p3228
I4155
sVentire
p3229
I669
sVrecreation
p3230
I2569
sVmagic
p3231
I2958
sValec
p3232
I4014
sVharbor
p3233
I2920
sVpositions
p3234
I2046
sVnotes
p3235
I1961
sVf
I3044
sVattempts
p3236
I2910
sVfewer
p3237
I3223
sVtry
p3238
I731
sVthreat
p3239
I2650
sVrace
p3240
I1029
sVdemonstrated
p3241
I3231
sVrealization
p3242
I4209
sS'PAD'
p3243
I0
sVrefer
p3244
I3825
sVnoted
p3245
I1181
sVsewage
p3246
I3623
sVsolutions
p3247
I3626
sVconcluded
p3248
I3327
sVsmaller
p3249
I1377
sVjump
p3250
I4132
sVpicked
p3251
I1376
sVdisturbed
p3252
I3876
sVodd
p3253
I2523
sVfolk
p3254
I3156
sVuniversities
p3255
I3383
sVindex
p3256
I1323
sVplays
p3257
I1663
sVbusiness
p3258
I237
sVpaintings
p3259
I3039
sVchicago
p3260
I1087
sVgiving
p3261
I1106
sVcolonel
p3262
I2965
sVkingdom
p3263
I3963
sVreaching
p3264
I2541
sVexpressed
p3265
I1422
sVpractices
p3266
I2085
sVcell
p3267
I1689
sVpaying
p3268
I3921
sVwaiting
p3269
I957
sVexperiment
p3270
I1725
sVeating
p3271
I3373
sVcurrently
p3272
I3203
sVcapital
p3273
I1258
sVcrossed
p3274
I2626
sV;
I22
sVbird
p3275
I3408
sVexercise
p3276
I1907
sVbody
p3277
I347
sVcompletion
p3278
I1935
sVled
p3279
I773
sVmeasurements
p3280
I2044
sVdegree
p3281
I828
sVexchange
p3282
I1541
sVrespectively
p3283
I3455
sVgathered
p3284
I3368
sVcommercial
p3285
I1797
sVgrowing
p3286
I970
sVobjects
p3287
I1679
sVlet
p3288
I244
sVothers
p3289
I294
sVconsideration
p3290
I2260
sVfifteen
p3291
I1967
sVextreme
p3292
I1777
sVgreat
p3293
I150
sVtalent
p3294
I2724
sVlieutenant
p3295
I3583
sVtechnical
p3296
I866
sVinvolved
p3297
I683
sV31
p3298
I2892
sVlarger
p3299
I840
sVleaving
p3300
I1196
sVengine
p3301
I2224
sVsuggests
p3302
I3584
sVproducts
p3303
I969
sVdefeat
p3304
I3456
sVopinion
p3305
I1112
sVmakes
p3306
I576
sVhonor
p3307
I1638
sVinvolves
p3308
I2702
sVcomposed
p3309
I2725
sVnamed
p3310
I1270
sVstockholders
p3311
I3907
sVclark
p3312
I3072
sVheart
p3313
I571
sVwin
p3314
I2019
sVworthy
p3315
I3738
sVprivate
p3316
I514
sVbend
p3317
I4156
sVhardy
p3318
I2603
sVaboard
p3319
I3991
sVnames
p3320
I1187
sVmotor
p3321
I1995
sVapply
p3322
I1996
sVadministration
p3323
I625
sVsinging
p3324
I2358
sVcloud
p3325
I3699
sVstanding
p3326
I1045
sVuse
p3327
I166
sVfrom
p3328
I32
sVstream
p3329
I2188
sV&
I610
sVremains
p3330
I1273
sVloans
p3331
I3370
sVhudson
p3332
I2104
sVexamined
p3333
I3678
sVnext
p3334
I234
sVfew
p3335
I165
sVdoubt
p3336
I914
sVexamination
p3337
I3585
sVvehicle
p3338
I3128
sVd
I2217
sVthemselves
p3339
I356
sVpanel
p3340
I3445
sVdreams
p3341
I3537
sVswitches
p3342
I3968
sVsort
p3343
I606
sVpencil
p3344
I3144
sVcomparison
p3345
I2297
sVstarted
p3346
I507
sVbecomes
p3347
I1020
sVpatrol
p3348
I4096
sVoccurred
p3349
I1616
sVwildly
p3350
I4115
sVmissile
p3351
I2277
sVtrail
p3352
I3444
sVtrain
p3353
I1312
sVsharply
p3354
I2869
sVbaby
p3355
I1744
sVrare
p3356
I2665
sVappointed
p3357
I2596
sVwomen
p3358
I504
sVcustomer
p3359
I3774
sVpaused
p3360
I3753
sVaccount
p3361
I893
sVanimals
p3362
I1917
sVeffectively
p3363
I2948
sVthis
p3364
I26
sVgovernments
p3365
I1811
sVoh
p3366
I850
sVanywhere
p3367
I2836
sVobvious
p3368
I1152
sVthin
p3369
I1154
sVdrill
p3370
I3249
sVof
p3371
I4
sVmeet
p3372
I668
sVclosing
p3373
I3687
sVinstitute
p3374
I2229
sVproof
p3375
I2785
sVcontrol
p3376
I426
sVcontinuity
p3377
I4090
sVslid
p3378
I4180
sVreserved
p3379
I3842
sVbent
p3380
I3162
sVe.g.
p3381
I3377
sVprocess
p3382
I496
sVfavorite
p3383
I2698
sVauthorized
p3384
I2928
sVtax
p3385
I476
sVpurposes
p3386
I1178
sVpieces
p3387
I1155
sVhigh
p3388
I186
sVprofessor
p3389
I1931
sVpulling
p3390
I4009
sVsomething
p3391
I200
sVsought
p3392
I2003
sVdominant
p3393
I1676
sVvoice
p3394
I420
sVnative
p3395
I2418
sVsir
p3396
I1122
sVeducational
p3397
I1527
sVunited
p3398
I192
sVvaried
p3399
I2601
sVdemocracy
p3400
I4191
sVsit
p3401
I1627
sVsix
p3402
I432
sVcady
p3403
I3864
sVpoetry
p3404
I1200
sVarrangement
p3405
I3189
sVregions
p3406
I2747
sVlocated
p3407
I1699
sVresponsibilities
p3408
I4113
sVforest
p3409
I1654
sVanimal
p3410
I1584
sVbrannon
p3411
I3647
sVinstead
p3412
I573
sVcomedy
p3413
I2792
sVestablishment
p3414
I2139
sVsin
p3415
I2107
sVstock
p3416
I682
sVtension
p3417
I1864
sVbuildings
p3418
I1402
sVblocks
p3419
I2942
sVattend
p3420
I2049
sVfarm
p3421
I836
sVstop
p3422
I864
sVwaters
p3423
I2647
sVphilosophy
p3424
I1235
sVcollection
p3425
I1279
sVstars
p3426
I3577
sVpreferred
p3427
I3965
sVrealized
p3428
I1553
sVretirement
p3429
I3935
sVpurely
p3430
I3564
sVlight
p3431
I286
sVcounter
p3432
I3428
sVlines
p3433
I489
sVelement
p3434
I2131
sVchief
p3435
I881
sVcourage
p3436
I3339
sVallow
p3437
I1482
sVserving
p3438
I2854
sVdivided
p3439
I2030
sVfurnish
p3440
I3651
sVhouston
p3441
I3993
sVholds
p3442
I2602
sVmove
p3443
I586
sVencouraged
p3444
I3657
sVoutlook
p3445
I2998
sVinterpreted
p3446
I4148
sVproduced
p3447
I1179
sVrendered
p3448
I3709
sVincluding
p3449
I588
sVlooks
p3450
I1375
sVmentioned
p3451
I1360
sVagricultural
p3452
I2893
sVwarren
p3453
I2175
sVperfect
p3454
I1884
sVwrite
p3455
I1000
sVremark
p3456
I3419
sVla
p3457
I2128
sVchosen
p3458
I1520
sVships
p3459
I2562
sVlabor
p3460
I673
sVwilling
p3461
I1567
sVchoose
p3462
I2233
sVinstruments
p3463
I3901
sVcovered
p3464
I1021
sVsocieties
p3465
I2679
sVspot
p3466
I1933
sVhoney
p3467
I4111
sVdesigns
p3468
I3693
sVcrucial
p3469
I3535
sVgreater
p3470
I519
sVdan
p3471
I3866
sVmaterial
p3472
I565
sVbarn
p3473
I3661
sVhate
p3474
I2617
sVmention
p3475
I2230
sVcutting
p3476
I1665
sVsnake
p3477
I2480
sVhands
p3478
I326
sVfront
p3479
I431
sVrepublican
p3480
I2050
sVday
p3481
I142
sVemotion
p3482
I3142
sVarticles
p3483
I3403
sVfebruary
p3484
I2470
sVprofound
p3485
I3817
sVl.
p3486
I1980
sVintelligent
p3487
I3878
sVuniversity
p3488
I443
sVcovering
p3489
I3349
sVidentified
p3490
I2419
sVsufficiently
p3491
I2641
sVdelightful
p3492
I3909
sVmagnitude
p3493
I3645
sVtruth
p3494
I825
sVinterview
p3495
I3266
sVpromise
p3496
I2436
sVbeneath
p3497
I1949
sVbills
p3498
I2348
sVexperienced
p3499
I2101
sVbrush
p3500
I2534
sVrecommend
p3501
I4048
sVdoing
p3502
I613
sVharris
p3503
I3690
sVcuba
p3504
I2351
sVrelated
p3505
I1041
sVconstitute
p3506
I3579
sVsociety
p3507
I404
sVbooks
p3508
I1101
sVmeasure
p3509
I1172
sVour
p3510
I90
sVbay
p3511
I1953
sVsexual
p3512
I1851
sVslipped
p3513
I3329
sVspecial
p3514
I381
sVout
p3515
I60
sV'
I299
sVbag
p3516
I2644
sVoccupied
p3517
I3058
sVwholly
p3518
I4169
sVcritics
p3519
I3978
sVtilghman
p3520
I4071
sVnarrative
p3521
I4201
sVelectronics
p3522
I3341
sVcause
p3523
I787
sVsacrifice
p3524
I3554
sVannounced
p3525
I1203
sVafford
p3526
I2732
sVshut
p3527
I2408
sVapproached
p3528
I2432
sVdictionary
p3529
I1962
sVfrank
p3530
I1593
sVpromptly
p3531
I3719
sVfourteen
p3532
I3391
sVcompletely
p3533
I953
sVsurely
p3534
I2329
sVyork
p3535
I316
sVlatest
p3536
I3096
sVreporters
p3537
I3157
sVfallout
p3538
I3401
sVpresently
p3539
I3074
sVorganic
p3540
I2866
sVprepare
p3541
I3088
sVdetermining
p3542
I3229
sVcould
p3543
I76
sVkeep
p3544
I364
sVconversation
p3545
I2231
sVlength
p3546
I896
sVallied
p3547
I3581
sVhence
p3548
I1894
sVears
p3549
I2859
sVmuseum
p3550
I3374
sVsouth
p3551
I399
sVmankind
p3552
I2834
sVplastics
p3553
I3433
sVmartin
p3554
I2035
sVtroubled
p3555
I3388
sVpowerful
p3556
I1716
sVscene
p3557
I991
sVowned
p3558
I3163
sVjesus
p3559
I1723
sVwalter
p3560
I2776
sVcongo
p3561
I1937
sVowner
p3562
I3250
sVreached
p3563
I592
sVprecisely
p3564
I2289
sVquality
p3565
I921
sVdisaster
p3566
I3904
sVlegislative
p3567
I2738
sVmanagement
p3568
I1167
sVreference
p3569
I1617
sVlos
p3570
I2178
sVfestival
p3571
I3775
sVunknown
p3572
I2325
sVdemonstration
p3573
I4114
sVassure
p3574
I2950
sVsystem
p3575
I217
sVrelations
p3576
I1035
sVtheir
p3577
I47
sVattack
p3578
I1004
sVsergeant
p3579
I3671
sVperfectly
p3580
I3438
sVfinal
p3581
I642
sVpainful
p3582
I4035
sVbeard
p3583
I3973
sVinterests
p3584
I1280
sVstomach
p3585
I2944
sVbranch
p3586
I3293
sVshorts
p3587
I3608
sVacademy
p3588
I4177
sVcompleted
p3589
I1569
sVexactly
p3590
I1033
sVdebate
p3591
I3384
sVnegro
p3592
I989
sVhistorian
p3593
I3558
sVelaborate
p3594
I3309
sVbranches
p3595
I3301
sVjuly
p3596
I1655
sVherself
p3597
I831
sVinstitution
p3598
I2709
sVneck
p3599
I1327
sVsteel
p3600
I2437
sVloved
p3601
I1991
sVwarfare
p3602
I2565
sVbed
p3603
I816
sVroberts
p3604
I2960
sVlong-range
p3605
I2629
sVpatients
p3606
I3029
sVindividual
p3607
I400
sVnervous
p3608
I4166
sVvisited
p3609
I2693
sVproviding
p3610
I1861
sVdistinguished
p3611
I2613
sVdrunk
p3612
I2941
sVfalse
p3613
I3573
sVlightly
p3614
I3413
sVcatholics
p3615
I3305
sVgently
p3616
I3429
sVcomfortable
p3617
I2949
sVtonight
p3618
I2850
sVdiscussions
p3619
I3316
sVhave
p3620
I34
sVneed
p3621
I270
sVexhibit
p3622
I4045
sVpresidential
p3623
I3185
sVtrembling
p3624
I3899
sVapparently
p3625
I833
sVclearly
p3626
I804
sVviewed
p3627
I4105
sVcatholic
p3628
I1275
sVafraid
p3629
I1963
sVangle
p3630
I2182
sVpupils
p3631
I4022
sVrussians
p3632
I3448
sVdallas
p3633
I1925
sVstudying
p3634
I2739
sVagency
p3635
I1997
sVable
p3636
I442
sVecumenical
p3637
I3616
sVcontact
p3638
I1733
sVinstance
p3639
I1306
sVconcerns
p3640
I2547
sVwhich
p3641
I37
sVbus
p3642
I3170
sVtruck
p3643
I1947
sVsubject
p3644
I623
sVaccuracy
p3645
I3037
sVunless
p3646
I1055
sVcombat
p3647
I3818
sVknees
p3648
I2900
sVwho
p3649
I55
sVscenes
p3650
I3611
sVeight
p3651
I1018
sVpreliminary
p3652
I4183
sVdevice
p3653
I2032
sVwhy
p3654
I224
sVprobable
p3655
I4108
sVso-called
p3656
I3311
sVdeny
p3657
I2367
sVvolunteers
p3658
I3641
sVconsequences
p3659
I3091
sVabsolutely
p3660
I3784
sVneighboring
p3661
I4203
sVenthusiastic
p3662
I4170
sVrequest
p3663
I2234
sVdisease
p3664
I2079
sVpsychological
p3665
I2680
sVface
p3666
I257
sVlooked
p3667
I263
sVgesture
p3668
I3336
sVmechanical
p3669
I3186
sVoccasion
p3670
I1891
sVpainting
p3671
I1866
sVfact
p3672
I201
sVgoals
p3673
I2761
sVson
p3674
I602
sVimpression
p3675
I2472
sVatmosphere
p3676
I1358
sVparker
p3677
I1726
sVexclusive
p3678
I3765
sVchances
p3679
I4204
sVtext
p3680
I1845
sVagreed
p3681
I1321
sVcharles
p3682
I1107
sVscotty
p3683
I3312
sVanyway
p3684
I2387
sVbring
p3685
I633
sVplanning
p3686
I797
sVmanchester
p3687
I2494
sVdemocrats
p3688
I2752
sVbedroom
p3689
I2140
sVsoldiers
p3690
I1989
sVfear
p3691
I812
sVpleased
p3692
I2676
sVdecade
p3693
I2395
sVprincipal
p3694
I1150
sVwear
p3695
I3075
sVcommunism
p3696
I1531
sVbased
p3697
I876
sVknowledge
p3698
I690
sVmud
p3699
I3324
sVholder
p3700
I3815
sV(
I53
sVincident
p3701
I2241
sVshould
p3702
I113
sVunable
p3703
I2056
sVcandidates
p3704
I2915
sVemployed
p3705
I2262
sVcommunist
p3706
I1088
sVpartially
p3707
I4057
sVlocal
p3708
I327
sVhope
p3709
I549
sVfinger
p3710
I2743
sVmeant
p3711
I1060
sVhandle
p3712
I2094
sVlistened
p3713
I3528
sVmeans
p3714
I311
sVbeat
p3715
I1607
sVfamiliar
p3716
I1496
sVbear
p3717
I1954
sVjoint
p3718
I2803
sVones
p3719
I900
sVwords
p3720
I354
sVtossed
p3721
I3390
sVprocedures
p3722
I1798
sVareas
p3723
I405
sVgray
p3724
I1346
sVprocesses
p3725
I1943
sVevident
p3726
I1969
sVended
p3727
I1817
sVshopping
p3728
I3863
sVnumerous
p3729
I2347
sVmarried
p3730
I1009
sVtaxes
p3731
I2426
sVcalling
p3732
I2475
sVstuff
p3733
I3313
sVshe
p3734
I44
sVdangerous
p3735
I2420
sVohio
p3736
I2851
sVfixed
p3737
I1215
sVconduct
p3738
I2014
sVview
p3739
I527
sVavailable
p3740
I390
sVrequirement
p3741
I3795
sVexists
p3742
I2648
sVacquired
p3743
I3956
sVnational
p3744
I252
sVedition
p3745
I2943
sVintensity
p3746
I1971
sVofficials
p3747
I1745
sVpowder
p3748
I3758
sVdesperate
p3749
I3937
sVoperated
p3750
I3779
sVcreating
p3751
I3631
sVcloser
p3752
I1816
sVwire
p3753
I2640
sVrecord
p3754
I747
sVpattern
p3755
I928
sVtend
p3756
I2540
sVfavor
p3757
I1372
sVwritten
p3758
I650
sVdifficulties
p3759
I2374
sVidentification
p3760
I2548
sVmills
p3761
I3348
sVclosed
p3762
I1001
sVroutine
p3763
I3132
sVprogress
p3764
I869
sVneither
p3765
I719
sVpistol
p3766
I3828
sVbought
p3767
I1975
sVindustries
p3768
I3022
sVends
p3769
I1623
sVability
p3770
I1443
sVopening
p3771
I1282
sVimportance
p3772
I976
sVjoy
p3773
I2730
sVagencies
p3774
I1772
sVefficiency
p3775
I2228
sVjob
p3776
I402
sVjoe
p3777
I2006
sVkey
p3778
I1194
sVpolice
p3779
I645
sVprecious
p3780
I3593
sVswift
p3781
I3281
sVproblem
p3782
I302
sVdavid
p3783
I2160
sVrestrictions
p3784
I3802
sVinstant
p3785
I2879
sVlimits
p3786
I2658
sVcareer
p3787
I1631
sVtaking
p3788
I555
sVequal
p3789
I1176
sVminds
p3790
I1990
sVtrips
p3791
I3566
sVapril
p3792
I1510
sVadmit
p3793
I2966
sVfigures
p3794
I934
sVpassing
p3795
I1674
sVcamera
p3796
I3001
sVjersey
p3797
I4046
sVotherwise
p3798
I1246
sVcomment
p3799
I2615
sVstrongly
p3800
I2951
sVadjusted
p3801
I3251
sVjim
p3802
I2992
sVagents
p3803
I2809
sVwall
p3804
I628
sVremoval
p3805
I2677
sVtuesday
p3806
I1887
sVover-all
p3807
I3120
sVirish
p3808
I3730
sVwalk
p3809
I1062
sVgreg
p3810
I3888
sVlaugh
p3811
I3708
sVcousin
p3812
I2152
sVtable
p3813
I490
sVpulmonary
p3814
I3819
sVacres
p3815
I2504
sVpoem
p3816
I2298
sVi.e.
p3817
I2573
sVmaid
p3818
I3466
sVaddition
p3819
I712
sVcent
p3820
I643
sVrhode
p3821
I1007
sVliberals
p3822
I3891
sVpermanent
p3823
I2780
sVslowly
p3824
I909
sVtreat
p3825
I3974
sVinadequate
p3826
I3363
sVpoet
p3827
I1073
sVproposal
p3828
I2694
sVimprove
p3829
I2820
sVlouisiana
p3830
I3529
sVkilled
p3831
I1418
sVdefine
p3832
I3867
sVfaced
p3833
I2072
sVmike
p3834
I1170
sVdescribe
p3835
I2673
sVcontrolled
p3836
I2795
sVc.
p3837
I1142
sVleague
p3838
I1555
sVpainted
p3839
I2753
sVam
p3840
I403
sVsufficient
p3841
I1743
sVprotect
p3842
I3173
sVal
p3843
I4032
sVfinished
p3844
I1225
sVours
p3845
I3861
sVimproved
p3846
I2031
sVatlanta
p3847
I3084
sVgeneral
p3848
I185
sVpresent
p3849
I250
sVhomes
p3850
I1778
sVprospect
p3851
I4029
sVnovel
p3852
I1853
sVsurvey
p3853
I2921
sVunlike
p3854
I2634
sVplain
p3855
I2302
sVrestaurant
p3856
I2662
sVappearance
p3857
I1955
sVbritain
p3858
I2041
sVvalue
p3859
I481
sVspecifically
p3860
I2868
sVwill
p3861
I56
sVpaul
p3862
I2903
sVwild
p3863
I1998
sVcarleton
p3864
I3609
sVbarely
p3865
I3454
sValmost
p3866
I209
sVthus
p3867
I306
sVsite
p3868
I1706
sVsurface
p3869
I478
sVhelped
p3870
I1666
sVarrangements
p3871
I2863
sVdemanded
p3872
I2637
sVpolitics
p3873
I1565
sVclaimed
p3874
I3133
sVpartner
p3875
I3322
sVfinance
p3876
I3415
sVshooting
p3877
I2304
sV)
I51
sVdiscipline
p3878
I3768
sVbegan
p3879
I307
sVcivilian
p3880
I4124
sVradiation
p3881
I1095
sVroman
p3882
I1910
sVcampus
p3883
I3230
sVmember
p3884
I746
sVguns
p3885
I2620
sVwhen
p3886
I54
sVstrange
p3887
I1274
sVspeaker
p3888
I2235
sVnorthwest
p3889
I4010
sVlargest
p3890
I2082
sVunits
p3891
I1223
sVparty
p3892
I439
sVgets
p3893
I1656
sVdifficult
p3894
I622
sVresponses
p3895
I3763
sVball
p3896
I950
sVslave
p3897
I3499
sVflesh
p3898
I2132
sVdrink
p3899
I1309
sVupon
p3900
I187
sVeffect
p3901
I448
sVv.
p3902
I3431
sVflew
p3903
I3850
sVstudent
p3904
I783
sVdust
p3905
I1533
sVfrequently
p3906
I1168
sVjudgment
p3907
I1881
sVscholars
p3908
I3868
sVidentity
p3909
I2001
sVdestruction
p3910
I2857
sVscarcely
p3911
I4134
sVargue
p3912
I3603
sVoff
p3913
I153
sVcenter
p3914
I424
sVfully
p3915
I1341
sVi
I25
sVweapon
p3916
I2616
sVcontest
p3917
I3976
sVwell
p3918
I111
sVfighting
p3919
I1488
sVthought
p3920
I180
sVpatterns
p3921
I2311
sVqualified
p3922
I4146
sVcommand
p3923
I1483
sVenglish
p3924
I505
sVposition
p3925
I397
sVmuscle
p3926
I2631
sVsoviet
p3927
I799
sVdrawing
p3928
I2759
sVusual
p3929
I1108
sVstores
p3930
I3076
sVcried
p3931
I3522
sVless
p3932
I207
sVmoments
p3933
I2204
sVkhrushchev
p3934
I1591
sVaccurate
p3935
I3092
sVexecutive
p3936
I2037
sVdomestic
p3937
I1741
sVobtain
p3938
I2621
sVsources
p3939
I1210
sVstored
p3940
I2999
sVdistant
p3941
I2930
sVrooms
p3942
I2016
sVtough
p3943
I3060
sVskill
p3944
I2642
sVgraduate
p3945
I3545
sVdrying
p3946
I3633
sVmysterious
p3947
I3933
sVgenerous
p3948
I4036
sVrapid
p3949
I2563
sVfarther
p3950
I3350
sVdensity
p3951
I3394
sVprovision
p3952
I2354
sVsupply
p3953
I1038
sVsky
p3954
I1926
sVlake
p3955
I2068
sV1958
p3956
I1166
sVreasons
p3957
I1028
sVadd
p3958
I1208
sVother
p3959
I73
sVnato
p3960
I4047
sVdevelopments
p3961
I2499
sVwet
p3962
I2075
sVought
p3963
I1577
sVidentical
p3964
I3472
sVtests
p3965
I1789
sVincreased
p3966
I685
sVprovisions
p3967
I2806
sVgovernment
p3968
I216
sVincreases
p3969
I1497
sVfive
p3970
I332
sVwhatever
p3971
I944
sVburden
p3972
I2527
sVdesk
p3973
I1684
sVpress
p3974
I813
sVimmediately
p3975
I844
sVpalfrey
p3976
I3957
sVprominent
p3977
I2745
sVloss
p3978
I1228
sVlincoln
p3979
I2319
sVquarters
p3980
I3697
sVnecessary
p3981
I427
sVlike
p3982
I89
sVsuccess
p3983
I1139
sVring
p3984
I2313
sVadmitted
p3985
I2489
sVtestimony
p3986
I2356
sVtraders
p3987
I3954
sVpayments
p3988
I2236
sVlose
p3989
I1888
sVbecome
p3990
I272
sVworks
p3991
I788
sVsoft
p3992
I1814
sVpage
p3993
I1652
sVregardless
p3994
I2853
sVitalian
p3995
I2344
sVbecause
p3996
I114
sVclassical
p3997
I3237
sVsequence
p3998
I3139
sVvillage
p3999
I1479
sVphenomena
p4000
I3938
sVauthority
p4001
I1140
sVhair
p4002
I675
sVgrowth
p4003
I647
sVrecommendation
p4004
I4145
sVproper
p4005
I1121
sVhome
p4006
I175
sVpeter
p4007
I3040
sVemployment
p4008
I2326
sVrecognition
p4009
I2481
sVhappens
p4010
I2726
sVanti-trust
p4011
I3953
sVcharges
p4012
I2469
sVlead
p4013
I803
sVarlene
p4014
I3919
sVbroad
p4015
I1265
sVavoid
p4016
I1899
sVdelaware
p4017
I3835
sVmines
p4018
I3720
sVconstantly
p4019
I2681
sVdisk
p4020
I4092
sVshelter
p4021
I1538
sVdoes
p4022
I190
sVpassion
p4023
I3672
sVleader
p4024
I1455
sV?
I28
sVlimitations
p4025
I3679
sVpoets
p4026
I3385
sVnoise
p4027
I2985
sVslight
p4028
I2092
sVjournal
p4029
I2627
sVexpansion
p4030
I2332
sVpeas
p4031
I4185
sVpaper
p4032
I635
sVpressure
p4033
I528
sVhost
p4034
I3061
sValthough
p4035
I295
sVaccompanied
p4036
I2976
sVincludes
p4037
I2449
sVintense
p4038
I2784
sVtrials
p4039
I2829
sVcounties
p4040
I3107
sVstage
p4041
I554
sVgained
p4042
I2812
sVpike
p4043
I2664
sVabout
p4044
I66
sVactual
p4045
I1070
sVcarried
p4046
I829
sVextension
p4047
I3030
sVgetting
p4048
I608
sVcolumn
p4049
I1519
sVfreedom
p4050
I807
sVconsciousness
p4051
I3536
sVrecognized
p4052
I1343
sVangeles
p4053
I2330
sVseeds
p4054
I2606
sVtongue
p4055
I3110
sVintroduced
p4056
I2121
sVswimming
p4057
I2922
sVdesires
p4058
I4176
sVequally
p4059
I1767
sVown
p4060
I130
sVletters
p4061
I902
sVcoverage
p4062
I4043
sVpreviously
p4063
I1889
sVtight
p4064
I3726
sVwashington
p4065
I465
sVfunctional
p4066
I4192
sVguard
p4067
I2303
sVweather
p4068
I1560
sVh.
p4069
I1517
sVtiny
p4070
I2197
sVfemale
p4071
I2198
sVartists
p4072
I2036
sVroads
p4073
I1918
sVquickly
p4074
I1190
sVmere
p4075
I2352
sVutility
p4076
I3614
sVmississippi
p4077
I2818
sVvan
p4078
I3362
sVadditional
p4079
I862
sVrushed
p4080
I3788
sVtransfer
p4081
I2823
sVhousing
p4082
I1858
sVreduction
p4083
I2651
sVspots
p4084
I3371
sVnoticed
p4085
I2206
sVintention
p4086
I3031
sVprospects
p4087
I4211
sVinner
p4088
I2012
sVbiggest
p4089
I4194
sVrode
p4090
I2715
sVnaturally
p4091
I1534
sVfunction
p4092
I935
sVbuilding
p4093
I629
sVbuy
p4094
I1540
sVnorth
p4095
I463
sVstadium
p4096
I4062
sVpressed
p4097
I3570
sVfunds
p4098
I1124
sVbut
p4099
I31
sVtransformed
p4100
I4040
sVvolume
p4101
I752
sVrepeated
p4102
I1871
sVconstruction
p4103
I1117
sVgain
p4104
I1436
sVcourts
p4105
I2220
sVflexible
p4106
I4039
sVhelpful
p4107
I3601
sVhighest
p4108
I1717
sVeat
p4109
I1799
sVwitness
p4110
I3670
sVhe
p4111
I12
sVcount
p4112
I2243
sVmade
p4113
I96
sVwise
p4114
I3023
sVplaces
p4115
I1057
sVnoon
p4116
I4102
sVwhether
p4117
I331
sVwish
p4118
I951
sVcells
p4119
I1334
sVofficial
p4120
I1417
sVsmooth
p4121
I2607
sVsigned
p4122
I2981
sVexcitement
p4123
I3314
sVplaced
p4124
I824
sVbelow
p4125
I695
sVstories
p4126
I1867
sVruling
p4127
I4205
sVdemonstrate
p4128
I3721
sVdistribution
p4129
I1253
sVpiece
p4130
I801
sVminutes
p4131
I497
sVdisplay
p4132
I2659
sVbearing
p4133
I4037
sVsupreme
p4134
I2186
sVentering
p4135
I4125
sVrecognize
p4136
I1753
sVuniversal
p4137
I2429
sVcontribute
p4138
I2515
sVperiods
p4139
I2321
sVet
p4140
I3509
sVflight
p4141
I2381
sVeducation
p4142
I444
sVhappen
p4143
I1735
sVcavalry
p4144
I3975
sVfunctions
p4145
I2268
sVcompared
p4146
I1505
sVvariety
p4147
I1251
sVcorporation
p4148
I1175
sVattacked
p4149
I3997
sVpercent
p4150
I2117
sVdetail
p4151
I1476
sV40
p4152
I2765
sVillinois
p4153
I2786
sVbook
p4154
I493
sVdetails
p4155
I1927
sVsick
p4156
I2190
sVillusion
p4157
I2923
sVreaches
p4158
I3996
sVconclusion
p4159
I1854
sVfrancisco
p4160
I2669
sVkinds
p4161
I3011
sVmonday
p4162
I1601
sVconsisted
p4163
I4139
sVworker
p4164
I3524
sVclass
p4165
I461
sVjune
p4166
I1074
sVvariation
p4167
I3342
sVstay
p4168
I930
sVchance
p4169
I784
sVrural
p4170
I2063
sVbasement
p4171
I3460
sVfriends
p4172
I620
sVvein
p4173
I4066
sVexposure
p4174
I3994
sVresolution
p4175
I1712
sVbaker
p4176
I3024
sVfactors
p4177
I999
sVrule
p4178
I1467
sVportion
p4179
I1775
sVvolumes
p4180
I2521
sVlives
p4181
I1319
sVgardens
p4182
I3315
s.