(dp1
Vlimited
p2
I1012
sVfig.
p3
I1533
sVcopy
p4
I2932
sVpersonally
p5
I2795
sVdesirable
p6
I3078
sVcolleges
p7
I2832
sVyellow
p8
I2036
sVfour
p9
I271
sVfacilities
p10
I1080
sVwoods
p11
I4046
sVsleep
p12
I1717
sVhanging
p13
I3715
sVconsists
p14
I2580
sVfirms
p15
I2040
sVcaptain
p16
I1282
sVsaved
p17
I2609
sVtowns
p18
I2231
sVpack
p19
I4062
sVforget
p20
I2099
sVrelationships
p21
I2942
sVwhose
p22
I384
sVfeeding
p23
I4041
sVpointing
p24
I3972
sVparis
p25
I1659
sVseriously
p26
I2402
sVpresents
p27
I3341
sVedward
p28
I2498
sVvoted
p29
I3908
sVg.
p30
I2646
sVunder
p31
I140
sVpatchen
p32
I4042
sVlord
p33
I1165
sVsorry
p34
I2299
sVpride
p35
I2652
sVworth
p36
I1145
sVbilly
p37
I4014
sVapparatus
p38
I3691
sVrisk
p39
I2101
sVblanket
p40
I3556
sVrise
p41
I1060
sVpenny
p42
I4169
sVkennedy's
p43
I4013
sVwomen's
p44
I3854
sVshoot
p45
I3888
sVhandling
p46
I2938
sVevery
p47
I189
sVjack
p48
I1172
sVaffect
p49
I3135
sVbringing
p50
I2882
sVvast
p51
I1830
sVbelieved
p52
I1406
sVschool
p53
I188
sVprize
p54
I3738
sVwooden
p55
I2221
sVcompanies
p56
I1242
sVsolution
p57
I1892
sVfrozen
p58
I3843
sVred
p59
I495
sVsuccession
p60
I4081
sVbroadway
p61
I4266
sVmuscles
p62
I3516
sVsponsored
p63
I3606
sVheading
p64
I3451
sVclothes
p65
I1208
sVenjoy
p66
I2535
sVcharter
p67
I3289
sVforce
p68
I418
sVleaders
p69
I995
sVtired
p70
I2326
sVconsistent
p71
I3790
sVinvariably
p72
I3462
sVestimates
p73
I4227
sVdirect
p74
I805
sVelections
p75
I2184
sVsurrounding
p76
I3922
sVsecond
p77
I257
sVstreet
p78
I396
sVestimated
p79
I1642
sVmason
p80
I4180
sVmachines
p81
I2074
sVeven
p82
I94
sVestablished
p83
I983
sVerrors
p84
I2508
sVguilty
p85
I3680
sVchrist
p86
I1119
sVpace
p87
I2571
sVdecisions
p88
I2079
sVmeals
p89
I4023
sVselected
p90
I1459
sVorchestra
p91
I1865
sVfingers
p92
I1683
sVliberty
p93
I2408
sVlights
p94
I2356
sVabsolute
p95
I3523
sVabove
p96
I324
sVdr.
p97
I515
sVchurches
p98
I1124
sVnet
p99
I3209
sVincreasing
p100
I1464
sVever
p101
I282
sVconsisting
p102
I3909
sVtold
p103
I221
sVhero
p104
I2165
sVmen
p105
I131
sVstared
p106
I1864
sVhere
p107
I134
sVhundreds
p108
I2536
sVmet
p109
I781
sVprotection
p110
I1596
sVchina
p111
I1573
sVactive
p112
I1234
sVpath
p113
I2537
sV100
p114
I1411
sVpractices
p115
I2116
sVfilms
p116
I3496
sVobtained
p117
I918
sVbalance
p118
I1198
sVdaughter
p119
I1514
sVcovers
p120
I3425
sVitems
p121
I1515
sVstudy
p122
I392
sVchanged
p123
I1143
sVapproaches
p124
I4071
sVreports
p125
I1299
sVcontroversy
p126
I3929
sVcredit
p127
I1736
sVi'd
p128
I1032
sVsmoke
p129
I2702
sVpermit
p130
I1414
sVmilitary
p131
I454
sVi'm
p132
I360
sVsuitable
p133
I3231
sVchanges
p134
I795
sVmutual
p135
I4017
sVcriticism
p136
I2789
sVdiameter
p137
I2471
sVcarl
p138
I2717
sVcampaign
p139
I1355
sVexplained
p140
I1359
sVexcuse
p141
I3787
sVhighly
p142
I1153
sVbrought
p143
I382
sVvisible
p144
I3213
sVpound
p145
I3801
sVmoral
p146
I726
sVguests
p147
I1775
sVekstrohm
p148
I3968
sVglance
p149
I2773
sVtotal
p150
I459
sVunit
p151
I1049
sVsarah
p152
I3936
sVplot
p153
I2962
sVspoke
p154
I1238
sVwould
p155
I46
sVarmy
p156
I787
sVshayne
p157
I3857
sVhospital
p158
I963
sVm.
p159
I1796
sVarms
p160
I874
sVsymphony
p161
I3310
sVmusic
p162
I441
sVtherefore
p163
I470
sVunfortunately
p164
I3323
sVstrike
p165
I2240
sVsurvive
p166
I3276
sVtype
p167
I484
sVuntil
p168
I198
sVseparated
p169
I2569
sVattractive
p170
I2872
sVholy
p171
I2287
sVsuccessful
p172
I1134
sVbrings
p173
I2803
sVwars
p174
I4000
sVaward
p175
I2428
sVaware
p176
I1294
sVparade
p177
I4168
sVglass
p178
I1089
sVberlin
p179
I1458
sVwarm
p180
I1650
sVadult
p181
I4135
sVshelters
p182
I4112
sVexcellent
p183
I1602
sVyard
p184
I3110
sVhole
p185
I1934
sVhold
p186
I601
sVmountains
p187
I2595
sVmust
p188
I102
sVme
p189
I93
sVword
p190
I356
sVroom
p191
I244
sVrights
p192
I1407
sVwork
p193
I132
sVroof
p194
I1879
sVmovies
p195
I3444
sVera
p196
I3531
sVhenry
p197
I1324
sVexceptions
p198
I3947
sVrevenues
p199
I3987
sVmy
p200
I86
sVexample
p201
I326
sVshook
p202
I1975
sVphrase
p203
I3191
sVindicated
p204
I982
sVgive
p205
I241
sVhousehold
p206
I3377
sVindia
p207
I1947
sVdiscovery
p208
I2465
sVinvolve
p209
I3510
sVindicates
p210
I2750
sVfoods
p211
I2182
sVwant
p212
I291
sVpeoples
p213
I3086
sVharold
p214
I3427
sVtimes
p215
I320
sVworse
p216
I2237
sVadmission
p217
I3312
sVend
p218
I224
sVrecovery
p219
I3624
sVthing
p220
I287
sVprovide
p221
I442
sVtravel
p222
I1808
sVsong
p223
I1572
sVfeature
p224
I2989
sVmachine
p225
I1041
sVhow
p226
I121
sVhot
p227
I801
sVwriters
p228
I1484
sVsignificance
p229
I1684
sVanswer
p230
I668
sVgate
p231
I3025
sVordinary
p232
I1507
sVbeach
p233
I1825
sVmassive
p234
I3332
sVbadly
p235
I3237
sVregional
p236
I2638
sVsupplied
p237
I3045
sVdescription
p238
I2077
sVbeauty
p239
I1545
sVinherent
p240
I3985
sVafter
p241
I98
sVcomplicated
p242
I3526
sVdavis
p243
I3852
sVwrong
p244
I802
sVlay
p245
I747
sVpresident
p246
I247
sVlaw
p247
I322
sVmeaningful
p248
I4269
sVparallel
p249
I2761
sVtypes
p250
I909
sVslavery
p251
I3313
sVpurchase
p252
I2391
sVattempt
p253
I1139
sVthird
p254
I520
sVdealer
p255
I4085
sVwherever
p256
I3848
sVheadquarters
p257
I1707
sVchildhood
p258
I2253
sVgreek
p259
I1815
sVmaintain
p260
I1871
sVgreen
p261
I911
sVultimate
p262
I1901
sVenter
p263
I1397
sVdemocratic
p264
I979
sVorder
p265
I253
sVwind
p266
I1748
sVwine
p267
I1503
sVoperations
p268
I1300
sVorigin
p269
I2539
sVinterpretation
p270
I2090
sVoffice
p271
I380
sVover
p272
I91
sVvary
p273
I3200
sVsatisfied
p274
I3091
sVguidance
p275
I2775
sVlondon
p276
I1205
sVjapan
p277
I2924
sVbang-jensen
p278
I4073
sVmayor
p279
I2906
sVbefore
p280
I101
sVfit
p281
I1434
sVpersonal
p282
I500
sVrevenue
p283
I3161
sV,
I2
sVwriting
p284
I908
sVbetter
p285
I220
sVmagnetic
p286
I4051
sVproduction
p287
I684
sVencounter
p288
I3759
sVglanced
p289
I4149
sVweeks
p290
I734
sVeasier
p291
I2203
sVshear
p292
I2806
sVsplit
p293
I3525
sVthen
p294
I82
sVthem
p295
I70
sVrachel
p296
I2631
sVaffected
p297
I3056
sVcombination
p298
I1959
sVprevented
p299
I3838
sVweakness
p300
I2444
sVsafe
p301
I1914
sVwe'll
p302
I1739
sVfinish
p303
I2847
sVbreak
p304
I1232
sVband
p305
I2127
sVeffects
p306
I981
sVthey
p307
I36
sVschools
p308
I505
sVbronchial
p309
I3672
sValtogether
p310
I3524
sVyourself
p311
I1654
sVeisenhower
p312
I2241
sVbank
p313
I1316
sVbread
p314
I2737
sVcontributed
p315
I2873
sVrepresents
p316
I2838
sValex
p317
I3545
sVmeat
p318
I2490
sVoxygen
p319
I2554
sVreasonably
p320
I3188
sVbarton
p321
I4047
sVautomobile
p322
I2230
sVskills
p323
I3021
sVfilling
p324
I3065
sVnewport
p325
I3923
sVvictory
p326
I1818
sVreasonable
p327
I1719
sVeach
p328
I115
sVwent
p329
I181
sVentitled
p330
I2014
sVside
p331
I248
sVbone
p332
I3318
sVmean
p333
I489
sVlifted
p334
I2600
sVfinancial
p335
I1251
sVbillion
p336
I1785
sVfairly
p337
I1924
sVseries
p338
I799
sVinnocent
p339
I2991
sVprinciples
p340
I1548
sVjanuary
p341
I2129
sVwednesday
p342
I3107
sVvote
p343
I1437
sVused
p344
I160
sVtrading
p345
I4069
sVwe'd
p346
I3413
sVcorporations
p347
I4114
sVnavy
p348
I3004
sVlaboratory
p349
I2765
sVdawn
p350
I3748
sVward
p351
I4136
sVsaturday
p352
I1635
sVt.
p353
I3839
sVdeclaration
p354
I4195
sVgorton
p355
I3383
sVdriving
p356
I2144
sVgod
p357
I302
sVmotel
p358
I4251
sVwashed
p359
I3140
sVforty
p360
I3057
sVtomorrow
p361
I1742
sVcontent
p362
I2142
sVfellowship
p363
I3092
sVlaid
p364
I1404
sVsafety
p365
I2345
sVreader
p366
I2601
sVmedicine
p367
I3577
sVgot
p368
I192
sVnewly
p369
I3736
sVmillions
p370
I2280
sVforth
p371
I1535
sVindependence
p372
I1556
sVfoundation
p373
I2922
sVsept.
p374
I3195
sVturning
p375
I1450
sVassured
p376
I2839
sVyou're
p377
I672
sVu.s.
p378
I623
sVthreatened
p379
I3655
sVlittle
p380
I122
sVfree
p381
I373
sVstandard
p382
I965
sVancient
p383
I1591
sVformation
p384
I3026
sVrain
p385
I1570
sVchecked
p386
I3480
sVestimate
p387
I2821
sVwanted
p388
I425
sVstorm
p389
I3958
sVchlorine
p390
I3265
sVpublication
p391
I2044
sVenormous
p392
I2990
sVperform
p393
I3667
sVcreated
p394
I1348
sVstarts
p395
I3511
sVritual
p396
I4151
sVdays
p397
I245
sVbears
p398
I4030
sVmusicians
p399
I2729
sVtoday's
p400
I2730
sVfought
p401
I2434
sVtied
p402
I3247
sVarrived
p403
I1788
sVr.
p404
I1823
sVonto
p405
I1866
sVcleaning
p406
I3019
sVeileen
p407
I4007
sVindustrial
p408
I720
sVfeatures
p409
I1369
sVclinical
p410
I3912
sVgrade
p411
I3173
sVsupper
p412
I2954
sVprimary
p413
I1122
sVrank
p414
I4252
sVhearing
p415
I1420
sVwash
p416
I3292
sVphilosophical
p417
I4043
sVadopted
p418
I2459
sVanother
p419
I144
sVthick
p420
I1648
sVclarity
p421
I3772
sVelectronic
p422
I1597
sVmagnificent
p423
I3918
sVfence
p424
I3604
sVservice
p425
I303
sVsimilarly
p426
I3087
sVtop
p427
I476
sVgirls
p428
I723
sVreturns
p429
I3201
sVapproximately
p430
I1528
sVfiction
p431
I2409
sVneeded
p432
I525
sVrates
p433
I1059
sVtoo
p434
I120
sVtom
p435
I1766
sVdraft
p436
I4264
sVordered
p437
I1580
sVjohn
p438
I268
sVbitter
p439
I2138
sVdogs
p440
I1550
sVlisten
p441
I2190
sVurban
p442
I2633
sVceiling
p443
I3468
sVmurder
p444
I1448
sVmechanism
p445
I3742
sVtool
p446
I2781
sVlumber
p447
I3143
sVserve
p448
I996
sVtook
p449
I213
sVrejected
p450
I3334
sVjapanese
p451
I2141
sVwestern
p452
I755
sVsomewhat
p453
I833
sVshortly
p454
I3196
sVhorn
p455
I3477
sVmaintaining
p456
I3803
sVpeculiar
p457
I3811
sVbegins
p458
I2032
sVdistance
p459
I989
sVcomposer
p460
I3448
sVanxiety
p461
I2677
sVtarget
p462
I2499
sVshowed
p463
I732
sVmother's
p464
I3104
sVtree
p465
I1895
sVlikely
p466
I673
sVseated
p467
I4238
sVnations
p468
I563
sVproject
p469
I1163
sVmatter
p470
I315
sVclasses
p471
I1283
sVguilt
p472
I3269
sVspeaking
p473
I1777
sVhistorical
p474
I1529
sVcharlie
p475
I2337
sVcompany's
p476
I3840
sVfeeling
p477
I581
sVpowers
p478
I1490
sVpoland
p479
I3338
sVbridge
p480
I1096
sVfashion
p481
I1587
sVsees
p482
I3081
sVpalace
p483
I2894
sVran
p484
I773
sVboston
p485
I1841
sVmodern
p486
I493
sVmind
p487
I293
sVmine
p488
I1898
sVanybody
p489
I2656
sVtalking
p490
I1077
sVseed
p491
I2721
sVmanner
p492
I851
sVseen
p493
I347
sVseem
p494
I420
sVseek
p495
I1593
sVtells
p496
I3193
sValive
p497
I1986
sVrelatively
p498
I1278
sVforced
p499
I1352
sVabroad
p500
I2196
sVstrength
p501
I752
sVgenuine
p502
I3248
sVconcrete
p503
I2303
sVshe'd
p504
I1612
sVlatter
p505
I932
sVresponsible
p506
I1534
sV1960
p507
I585
sV1961
p508
I767
sV1962
p509
I3158
sVsound
p510
I473
sVchest
p511
I2143
sVsubjects
p512
I1339
sVabsorbed
p513
I4262
sVforces
p514
I564
sVlaughed
p515
I2191
sVeffectiveness
p516
I3390
sVexplanation
p517
I2578
sVcircles
p518
I3421
sVblue
p519
I711
sVnobody
p520
I1456
sVthough
p521
I205
sVobject
p522
I1708
sVmaris
p523
I3043
sVextending
p524
I3694
sVregular
p525
I1318
sVgermany
p526
I1340
sVlists
p527
I3192
sVletter
p528
I699
sVentry
p529
I4037
sVphase
p530
I1525
sVcontain
p531
I2505
sVgrave
p532
I3304
sVmorality
p533
I3638
sVyankees
p534
I3809
sVobservation
p535
I3831
sVtestament
p536
I3619
sVreleased
p537
I3962
sVmedical
p538
I626
sVcamp
p539
I1442
sVflow
p540
I1615
sVdog
p541
I1445
sVyours
p542
I4070
sVpoints
p543
I712
sVprinciple
p544
I977
sVdeeply
p545
I2855
sVnineteenth
p546
I2671
sVvoting
p547
I3578
sVconsumer
p548
I2928
sVsum
p549
I2467
sVcame
p550
I158
sVreserve
p551
I2963
sVd.
p552
I1698
sVsaying
p553
I938
sVcooking
p554
I3353
sVsimultaneously
p555
I2943
sVpope
p556
I2814
sVlewis
p557
I1958
sVmeetings
p558
I3773
sVqueen
p559
I2741
sVending
p560
I3512
sVlee
p561
I3203
sVcolors
p562
I2152
sVradio
p563
I882
sVasia
p564
I2558
sVrector
p565
I3282
sVearth
p566
I677
sVenjoyed
p567
I1970
sVpick
p568
I2038
sVorleans
p569
I2744
sVbusy
p570
I1940
sVjust
p571
I116
sVspite
p572
I2001
sVsituations
p573
I2187
sVexplain
p574
I1737
sVsentence
p575
I3206
sVsugar
p576
I3232
sVtheme
p577
I2037
sVtouched
p578
I2672
sVrich
p579
I1454
sVadequate
p580
I1677
sVrice
p581
I3266
sVpersonality
p582
I2318
sVwearing
p583
I2392
sVdo
p584
I83
sVmixture
p585
I3565
sVwide
p586
I847
sVetc.
p587
I1930
sVde
p588
I863
sVwatch
p589
I1350
sV13
p590
I2285
sVlegs
p591
I1637
sVcoast
p592
I1831
sVpocket
p593
I2425
sVwatson
p594
I2472
sVnew
p595
I74
sVreport
p596
I571
sVcoating
p597
I3097
sVdu
p598
I1536
sVu.n.
p599
I2156
sV14
p600
I2015
sVruns
p601
I2031
sVbar
p602
I1335
sVcountries
p603
I674
sVfields
p604
I1510
sVmethod
p605
I725
sVtwice
p606
I1473
sVbad
p607
I727
sVsoftly
p608
I3513
sVshots
p609
I3648
sVrelease
p610
I3009
sVautomatic
p611
I2798
sVsecretary
p612
I517
sVheaded
p613
I1909
sVethical
p614
I3646
sVvictim
p615
I3910
sVfair
p616
I1391
sVw.
p617
I1295
sVliquor
p618
I2592
sVtesting
p619
I3365
sVtransferred
p620
I3625
sVobserved
p621
I1474
sVdepends
p622
I2274
sVdecided
p623
I735
sVresult
p624
I397
sVcattle
p625
I1116
sVfail
p626
I2976
sVdesegregation
p627
I2745
sVbest
p628
I280
sVtechniques
p629
I1083
sVsaid
p630
I62
sVcapacity
p631
I1319
sVlots
p632
I2626
sVaway
p633
I200
sVgentleman
p634
I3743
sVcontinually
p635
I4075
sVpressures
p636
I2923
sVthere's
p637
I974
sVteaching
p638
I1656
sVcooperation
p639
I2826
sVdrawn
p640
I1551
sVapproach
p641
I859
sVrigid
p642
I4220
sVco.
p643
I2305
sVpreserve
p644
I3123
sVletting
p645
I3467
sVwe
p646
I48
sVnever
p647
I141
sVterms
p648
I620
sVextend
p649
I3435
sVnature
p650
I516
sVrolled
p651
I2327
sVconfusion
p652
I2538
sVaesthetic
p653
I4009
sVweak
p654
I3409
sVhowever
p655
I174
sVweekend
p656
I3832
sVtheresa
p657
I4204
sVsoutheast
p658
I3791
sVharvard
p659
I3255
sVdrew
p660
I1613
sVextent
p661
I961
sVnews
p662
I1052
sVatoms
p663
I2788
sVkitchen
p664
I1194
sVsuggested
p665
I1019
sVreceived
p666
I622
sVessentially
p667
I2364
sVaccident
p668
I3328
sVaccused
p669
I4108
sVcow
p670
I3642
sVreported
p671
I892
sVcountry
p672
I294
sVill
p673
I4025
sVcup
p674
I2463
sVheating
p675
I4181
sVagainst
p676
I156
sVplayers
p677
I3703
sVnegative
p678
I2119
sVgames
p679
I2055
sVplanned
p680
I1443
sVfaces
p681
I1526
sVdistinction
p682
I2708
sVcontribution
p683
I3022
sVexpense
p684
I2229
sVconfronted
p685
I3424
sVasked
p686
I232
sVaren't
p687
I3098
sVsuggest
p688
I2094
sVpresumably
p689
I2755
sVtone
p690
I1386
sVappeared
p691
I763
sVcharacter
p692
I900
sVheight
p693
I3155
sVrepresented
p694
I2016
sVtons
p695
I3722
sVinitiative
p696
I3403
sVpolynomial
p697
I3744
sVtrust
p698
I2164
sVspeak
p699
I969
sVconference
p700
I1123
sVease
p701
I2673
sVproceeded
p702
I4113
sVsymbols
p703
I3044
sVbeef
p704
I3470
sVbasis
p705
I536
sVunion
p706
I540
sVthree
p707
I162
sVbeen
p708
I50
sV.
I3
sVcommission
p709
I1040
sVbeer
p710
I3141
sVmuch
p711
I107
sVinterest
p712
I290
sVbasic
p713
I596
sVexpected
p714
I528
sVdeliberately
p715
I3590
sVentered
p716
I1095
sVlovely
p717
I2516
sVwarmth
p718
I3781
sVduties
p719
I3228
sVthrew
p720
I2445
sVdry
p721
I1619
sVlife
p722
I138
sVpremier
p723
I4029
sVfamilies
p724
I1609
sVdeeper
p725
I2968
sVeastern
p726
I3414
sVdrugs
p727
I3792
sVconcerning
p728
I1802
sVrepublicans
p729
I3704
sVwoodruff
p730
I3559
sVdave
p731
I3436
sVsubstance
p732
I3290
sVchild
p733
I450
sVcatch
p734
I2623
sVworked
p735
I818
sVsad
p736
I3167
sVcolored
p737
I3458
sVapplied
p738
I1010
sVcommerce
p739
I1941
sVexception
p740
I2778
sVhas
p741
I52
sVconviction
p742
I2226
sVpublicly
p743
I3880
sVgentle
p744
I3878
sVcastro
p745
I3415
sVair
p746
I379
sVaim
p747
I2999
sVnear
p748
I491
sVsuppose
p749
I1118
sVteachers
p750
I1588
sVleaves
p751
I2268
sVaid
p752
I770
sVproperty
p753
I648
sVemployees
p754
I1679
sVprocedure
p755
I1376
sVmistake
p756
I3249
sVseven
p757
I945
sVclimbed
p758
I2509
sVmetropolitan
p759
I3210
sVplayed
p760
I1036
sVis
p761
I10
sVit
p762
I16
sVexpenses
p763
I2376
sVthroat
p764
I2185
sVtissue
p765
I2689
sVexperts
p766
I2931
sVfled
p767
I3800
sVuncle
p768
I1987
sVin
p769
I8
sVspending
p770
I2734
sVpathology
p771
I3283
sVif
p772
I58
sVgrown
p773
I2617
sVcontaining
p774
I2492
sVlacking
p775
I3401
sVsoldier
p776
I2848
sVpatent
p777
I3127
sVthings
p778
I264
sVmake
p779
I126
sVwound
p780
I3760
sVbeside
p781
I1388
sVhelva
p782
I3980
sVcomplex
p783
I1185
sVharmony
p784
I3329
sVliberal
p785
I1584
sVseveral
p786
I250
sVshowing
p787
I1810
sVeuropean
p788
I1824
sVwheel
p789
I1999
sVindependent
p790
I1567
sVpublished
p791
I1213
sVhang
p792
I3939
sVevil
p793
I1508
sVhand
p794
I211
sVdelight
p795
I3674
sVcharacters
p796
I3103
sVconstitution
p797
I2279
sVhans
p798
I2514
sVinsisted
p799
I2604
sVopportunity
p800
I873
sVhe'll
p801
I3608
sVthoughts
p802
I2097
sVkid
p803
I1832
sVbutter
p804
I3887
sVkept
p805
I531
sVprograms
p806
I744
sVsettled
p807
I1581
sVsuffering
p808
I2544
sVocean
p809
I3197
sVintervals
p810
I4178
sVacademic
p811
I1994
sVmaterials
p812
I1117
sVgreatest
p813
I1225
sVqualities
p814
I2506
sVmother
p815
I444
sVclaims
p816
I1475
sVthe
p817
I1
sVmusical
p818
I1269
sVleft
p819
I194
sVopinions
p820
I2525
sVbirth
p821
I1665
sVproposed
p822
I1289
sVgolden
p823
I2625
sVhearst
p824
I2304
sVexpanding
p825
I3819
sVaside
p826
I1652
sVassigned
p827
I2107
sVidentify
p828
I3974
sVthanks
p829
I2964
sVhuman
p830
I321
sVfacts
p831
I1241
sVyes
p832
I708
sVyet
p833
I216
sVprevious
p834
I1259
sVthyroid
p835
I2944
sVdining
p836
I3766
sVunique
p837
I1925
sVhal
p838
I3717
sVunable
p839
I2088
sVcandidate
p840
I3256
sVsciences
p841
I3120
sVregarded
p842
I2009
sVhad
p843
I27
sVideal
p844
I1838
sVwright
p845
I2404
sVspread
p846
I1310
sVadvantages
p847
I3771
sVboard
p848
I405
sVeasy
p849
I852
sVprison
p850
I2674
sVeast
p851
I539
sVhat
p852
I1995
sVhumanity
p853
I3761
sVgave
p854
I336
sVshoulder
p855
I1834
sVmunicipal
p856
I3718
sVdignity
p857
I3156
sVsurvival
p858
I3355
sVpossible
p859
I255
sVsaddle
p860
I4122
sVinterior
p861
I1476
sVcultural
p862
I2056
sVjulia
p863
I3895
sVbackground
p864
I1658
sVdestroy
p865
I2321
sVjudge
p866
I1412
sVshadow
p867
I3029
sVfeelings
p868
I1833
sVadvanced
p869
I2145
sVapart
p870
I1969
sVdesire
p871
I1375
sVcounty
p872
I654
sVo'banion
p873
I4053
sVgift
p874
I3305
sV50
p875
I1837
sVspecific
p876
I921
sVsteps
p877
I886
sVofficer
p878
I1069
sVnight
p879
I222
sVhung
p880
I1705
sVsecurity
p881
I1182
sVtowards
p882
I1724
sVcharm
p883
I3951
sVattorney
p884
I1693
sVright
p885
I159
sVold
p886
I151
sVcontinuous
p887
I2530
sVdeal
p888
I710
sVpeople
p889
I118
sVsuccessfully
p890
I3491
sVsomehow
p891
I1498
sVdead
p892
I566
sVborn
p893
I941
sVclubs
p894
I4228
sVelection
p895
I1405
sVescape
p896
I1701
sVdear
p897
I2076
sVmultiple
p898
I3106
sVbore
p899
I4187
sVguess
p900
I2013
sVforgotten
p901
I2891
sVhumor
p902
I2385
sVfor
p903
I13
sVbottom
p904
I1214
sVestablish
p905
I1931
sVear
p906
I3671
sVnormal
p907
I760
sVice
p908
I2478
sVp.m.
p909
I1760
sVeverything
p910
I535
sVindividuals
p911
I1479
sVshakespeare
p912
I3537
sVdenied
p913
I2370
sVoffices
p914
I2493
sVchristmas
p915
I3865
sVparticipation
p916
I2690
sVcore
p917
I2593
sVsherman
p918
I3649
sVmarketing
p919
I2611
sVpayment
p920
I2109
sVdisappeared
p921
I3159
sVbinomial
p922
I3094
sVupward
p923
I3860
sVlosing
p924
I3774
sVpost
p925
I1275
sVmanufacturing
p926
I4263
sVproperties
p927
I1686
sVchapter
p928
I1486
sVincreasingly
p929
I2630
sVacquire
p930
I3836
sVdollars
p931
I1109
sVcitizens
p932
I1252
sVsubmarine
p933
I4008
sVo
I4021
sVdinner
p934
I1178
sVplus
p935
I1516
sVafternoon
p936
I1007
sVhorizon
p937
I3911
sVshared
p938
I2752
sVefforts
p939
I834
sVslightly
p940
I1320
sVmarshal
p941
I4001
sVautomatically
p942
I3095
sVnixon
p943
I4084
sVfrontier
p944
I3597
sVconsiderations
p945
I3503
sVraised
p946
I1067
sVindians
p947
I3380
sVstatements
p948
I1623
sVformerly
p949
I3749
sVpresence
p950
I1431
sVcivil
p951
I1189
sVmarshall
p952
I3820
sVprofession
p953
I2965
sVbound
p954
I2659
sVintellectual
p955
I1668
sVtwo
p956
I80
sVdown
p957
I112
sVpair
p958
I2236
sVbeings
p959
I3030
sVmagazines
p960
I4124
sVdoctrine
p961
I2446
sVdean
p962
I2807
sVreducing
p963
I3452
sVfrightened
p964
I3975
sVmethods
p965
I721
sVcommunists
p966
I2830
sVexisted
p967
I2799
sVcrowd
p968
I2104
sVsupport
p969
I548
sVinitial
p970
I1628
sVknowing
p971
I2244
sVsovereign
p972
I3532
sVfight
p973
I1098
sVvirgin
p974
I3160
sVaccordingly
p975
I3456
sVjoseph
p976
I2057
sVeditor
p977
I1402
sVway
p978
I110
sVresulted
p979
I2993
sVcall
p980
I523
sVwas
p981
I11
sVwar
p982
I197
sVhappy
p983
I1097
sVselection
p984
I2878
sVhead
p985
I215
sVmedium
p986
I2479
sVamateur
p987
I4076
sVform
p988
I261
sVoffer
p989
I1370
sVattempted
p990
I3285
sVbecoming
p991
I1971
sVdifferences
p992
I1383
sVlanding
p993
I3948
sVford
p994
I4219
sVfailure
p995
I1210
sVheat
p996
I1112
sVhear
p997
I663
sVjustify
p998
I3965
sVremoved
p999
I1453
sVtrue
p1000
I415
sVfort
p1001
I2042
sVabsent
p1002
I3782
sVprotestant
p1003
I2210
sVinside
p1004
I569
sVattached
p1005
I4103
sVmaximum
p1006
I1371
sVdevices
p1007
I2994
sVtell
p1008
I362
sVemotional
p1009
I1627
sVreform
p1010
I3535
sVstages
p1011
I2215
sVpropaganda
p1012
I3584
sS'<unk>'
p1013
I4272
sVphil
p1014
I1692
sVproved
p1015
I1542
sVpuerto
p1016
I4213
sVclassic
p1017
I3061
sVstronger
p1018
I3017
sVabstract
p1019
I3250
sVrevealed
p1020
I2856
sVevidence
p1021
I475
sV''
p1022
I15
sVexist
p1023
I1883
sVpromised
p1024
I2486
sVprayer
p1025
I3723
sVship
p1026
I1304
sVmold
p1027
I2473
sVcheck
p1028
I1231
sVphysical
p1029
I749
sVdying
p1030
I3251
sVfloor
p1031
I642
sVwhereas
p1032
I2726
sVgenerally
p1033
I784
sVhanded
p1034
I2950
sVreality
p1035
I1381
sVsnakes
p1036
I4020
sVtim
p1037
I4173
sVinterested
p1038
I1021
sVrole
p1039
I1030
sVholding
p1040
I1713
sVjr.
p1041
I1435
sVtest
p1042
I884
sVenemies
p1043
I3872
sVsmell
p1044
I3240
sVroll
p1045
I3183
sVrealize
p1046
I1576
sVpicture
p1047
I624
sVquestioned
p1048
I3627
sVbrothers
p1049
I2716
sVo'clock
p1050
I2691
sVmodels
p1051
I2366
sVsurprise
p1052
I2198
sVpreceding
p1053
I3566
sVfelt
p1054
I276
sVlet's
p1055
I1577
sVfell
p1056
I1169
sVclimate
p1057
I3938
sVauthorities
p1058
I2851
sVhurt
p1059
I2975
sVtalents
p1060
I3802
sVdied
p1061
I1255
sVjones
p1062
I1522
sVyounger
p1063
I2563
sVreorganization
p1064
I3846
sVlonger
p1065
I513
sVn.
p1066
I3762
sVphone
p1067
I2080
sVassume
p1068
I1754
sVnormally
p1069
I3084
sVcontacts
p1070
I4125
sVdaily
p1071
I868
sVjacket
p1072
I3277
sVreception
p1073
I2907
sVteeth
p1074
I1046
sVpush
p1075
I3010
sVserious
p1076
I913
sVquantity
p1077
I3347
sVsongs
p1078
I1877
sVneighbors
p1079
I2815
sVdetective
p1080
I2175
sVconcept
p1081
I1270
sVmanaged
p1082
I3096
sVcorps
p1083
I962
sVaffair
p1084
I3300
sVdance
p1085
I1201
sVvarying
p1086
I2653
sVfocus
p1087
I2800
sVintegration
p1088
I2312
sVswept
p1089
I3214
sVroy
p1090
I2971
sVmanager
p1091
I1228
sVmile
p1092
I2331
sVcomments
p1093
I3558
sVgrateful
p1094
I4130
sVskin
p1095
I2363
sVbattle
p1096
I1235
sVchair
p1097
I1660
sVcreative
p1098
I2288
sVmilk
p1099
I2293
sVrow
p1100
I3119
sVdevoted
p1101
I2214
sVurethane
p1102
I3981
sVcertainly
p1103
I715
sVhurry
p1104
I3060
sVdepend
p1105
I2491
sVprovidence
p1106
I1367
sVpromote
p1107
I3410
sVtechnique
p1108
I1872
sVfather
p1109
I538
sVpassage
p1110
I2269
sVenvironment
p1111
I2605
sVanswered
p1112
I1641
sVfinally
p1113
I519
sVasking
p1114
I1643
sVelectricity
p1115
I3961
sVsupplies
p1116
I2351
sVmarks
p1117
I3750
sVterror
p1118
I4166
sVdartmouth
p1119
I3533
sVsuffered
p1120
I2663
sVcircumstances
p1121
I1284
sVride
p1122
I2291
sVbrown
p1123
I559
sVsupported
p1124
I2089
sVwe've
p1125
I3264
sVadvantage
p1126
I1485
sVfrequencies
p1127
I3449
sVkeeping
p1128
I1856
sVchoice
p1129
I939
sVautomobiles
p1130
I4188
sVcongregation
p1131
I2352
sVadvised
p1132
I3278
sVcook
p1133
I2377
sVjoin
p1134
I1706
sVtrouble
p1135
I772
sVexact
p1136
I3821
sVminute
p1137
I2028
sVwore
p1138
I1712
sVhenrietta
p1139
I2699
sVclouds
p1140
I2901
sVimpressive
p1141
I2270
sVlevel
p1142
I449
sVdid
p1143
I99
sVdie
p1144
I1491
sVpermits
p1145
I3914
sVproposals
p1146
I3630
sVgun
p1147
I896
sVstandards
p1148
I1460
sVleave
p1149
I472
sVp
I1424
sVtheological
p1150
I3873
sVteam
p1151
I1306
sVquick
p1152
I1632
sVmovie
p1153
I3689
sVguy
p1154
I2178
sVround
p1155
I1436
sVparked
p1156
I3301
sVprevent
p1157
I1307
sVspiritual
p1158
I1730
sVrevolution
p1159
I1559
sVsays
p1160
I486
sVoccurrence
p1161
I3572
sVfindings
p1162
I3241
sVtrend
p1163
I2411
sVdealing
p1164
I2575
sVdiscover
p1165
I2808
sVsign
p1166
I1152
sVlinda
p1167
I2657
sVcost
p1168
I419
sVdried
p1169
I3793
sVrun
p1170
I455
sVrough
p1171
I2736
sVboats
p1172
I2194
sVappear
p1173
I906
sVassistance
p1174
I1248
sVshares
p1175
I2405
sVrome
p1176
I1560
sVcurrent
p1177
I1033
sV300
p1178
I4147
sVsuspect
p1179
I3538
sVgoes
p1180
I1206
sVinternational
p1181
I652
sVfalling
p1182
I3330
sVstaff
p1183
I952
sVcorn
p1184
I3216
sVfilled
p1185
I1085
sVtemperatures
p1186
I4019
sVsupporting
p1187
I3855
sVprocessing
p1188
I2909
sVjury
p1189
I1646
sVheavily
p1190
I1854
sVclerk
p1191
I3257
sVv
I3899
sVfrench
p1192
I748
sVunderstanding
p1193
I872
sVwater
p1194
I204
sVbaseball
p1195
I1988
sVgroups
p1196
I843
sVaddress
p1197
I1401
sValone
p1198
I507
sValong
p1199
I277
sVstem
p1200
I3585
sVappears
p1201
I1291
sVchange
p1202
I402
sVwait
p1203
I1155
sVbox
p1204
I1553
sVboy
p1205
I399
sVarc
p1206
I2743
sVthirty
p1207
I1893
sVbrilliant
p1208
I2242
sVshift
p1209
I2722
sVstudied
p1210
I1372
sVshoulders
p1211
I2181
sVpetitioner
p1212
I3695
sVcommonly
p1213
I3639
sVproud
p1214
I2252
sVtrial
p1215
I769
sVaccomplished
p1216
I2510
sVchemical
p1217
I1861
sVfranklin
p1218
I3534
sVsuggestion
p1219
I3233
sVusually
p1220
I468
sVo.
p1221
I3650
sVbob
p1222
I2756
sVstudies
p1223
I1042
sVvigorous
p1224
I3622
sVengineer
p1225
I2667
sVtasks
p1226
I3657
sVlove
p1227
I413
sVgod's
p1228
I2921
sVextra
p1229
I2223
sVmerely
p1230
I761
sVprefer
p1231
I3904
sVmarked
p1232
I1281
sVcontrols
p1233
I3593
sVdivorce
p1234
I3700
sVrarely
p1235
I2703
sVcrisis
p1236
I1328
sVmarket
p1237
I656
sVeverybody
p1238
I1523
sVpermitted
p1239
I1978
sVtroops
p1240
I2120
sVworking
p1241
I671
sVprove
p1242
I2128
sVsake
p1243
I2739
sVpositive
p1244
I1465
sVangry
p1245
I2483
sVvisit
p1246
I980
sVtears
p1247
I3242
sVfrance
p1248
I1451
sVlive
p1249
I556
sVwood
p1250
I2068
sVsleeping
p1251
I2831
sVopposed
p1252
I2686
sVmemory
p1253
I1432
sVnegroes
p1254
I1903
sVtape
p1255
I3109
sVassociated
p1256
I1822
sVangels
p1257
I4271
sVcited
p1258
I4268
sVtoday
p1259
I337
sV``
p1260
I14
sVconductor
p1261
I4174
sVsessions
p1262
I4044
sVclub
p1263
I705
sVorganized
p1264
I2004
sVapparent
p1265
I1962
sVallies
p1266
I3543
sVdowntown
p1267
I2707
sVvisual
p1268
I2767
sVeverywhere
p1269
I2367
sVobservations
p1270
I2793
sVriding
p1271
I2457
sVcorresponding
p1272
I2927
sVcases
p1273
I686
sVeffort
p1274
I701
sVpiano
p1275
I2936
sVfly
p1276
I3342
sVorganizations
p1277
I1826
sVcar
p1278
I355
sVcap
p1279
I3881
sVsoul
p1280
I2393
sVbelieves
p1281
I2583
sVdistricts
p1282
I2917
sVvalues
p1283
I530
sVcan
p1284
I71
sVroyal
p1285
I2301
sVfollowing
p1286
I433
sVmaking
p1287
I381
sVcarolina
p1288
I4089
sVnewspapers
p1289
I2945
sVclaim
p1290
I1103
sVcrazy
p1291
I3211
sVmonths
p1292
I521
sVfigure
p1293
I461
sVrecalled
p1294
I3999
sVdecember
p1295
I1782
sVwinston
p1296
I2796
sVdidn't
p1297
I226
sVconfused
p1298
I2548
sVagent
p1299
I2560
sVsample
p1300
I1960
sVheard
p1301
I386
sVcritic
p1302
I4079
sVchin
p1303
I4055
sVdropped
p1304
I1065
sVcouncil
p1305
I1047
sVallowed
p1306
I1260
sVreminded
p1307
I3708
sVhydrogen
p1308
I2854
sVoccur
p1309
I2570
sVzen
p1310
I3969
sVpink
p1311
I2310
sVproductive
p1312
I4102
sVrequirements
p1313
I1315
sVwinter
p1314
I1308
sVrobinson
p1315
I2897
sVdiscussion
p1316
I1146
sVwatching
p1317
I1426
sVmagazine
p1318
I2829
sV1
I179
sVtill
p1319
I2277
sVsunday
p1320
I1064
sVvital
p1321
I2002
sVs.
p1322
I905
sVfourth
p1323
I1461
sVoptimal
p1324
I3775
sVmitchell
p1325
I3973
sVaxis
p1326
I2903
sVeconomy
p1327
I1374
sVcriminal
p1328
I4224
sVproduct
p1329
I1236
sVsamuel
p1330
I3252
sVcocktail
p1331
I4175
sVhuge
p1332
I2029
sVmay
p1333
I81
sVwonderful
p1334
I2131
sVfed
p1335
I2710
sVsouthern
p1336
I757
sVapplications
p1337
I4087
sVmembership
p1338
I1481
sVproduce
p1339
I1325
sVdesigned
p1340
I986
sVislands
p1341
I3560
sVdate
p1342
I1043
sVsuch
p1343
I88
sVtruly
p1344
I1972
sVdata
p1345
I576
sVgrow
p1346
I1755
sVrepeat
p1347
I3935
sVman
p1348
I92
sVstress
p1349
I999
sVnatural
p1350
I647
sVremember
p1351
I750
sVliquid
p1352
I2323
sVconscious
p1353
I2401
sVwhenever
p1354
I2612
sVmaybe
p1355
I778
sVexplicit
p1356
I4215
sVq
I2447
sVswitch
p1357
I2618
sVso
p1358
I61
sVsilence
p1359
I2149
sVafrican
p1360
I3813
sVtall
p1361
I2050
sVbarn
p1362
I3712
sVincrease
p1363
I506
sVpulled
p1364
I1478
sVtalk
p1365
I660
sVtypical
p1366
I1714
sVhoward
p1367
I3431
sVno.
p1368
I1741
sVacts
p1369
I2880
sVshoes
p1370
I2517
sVindeed
p1371
I625
sVpointed
p1372
I1471
sVmainly
p1373
I3495
sVprimitive
p1374
I2916
sVyears
p1375
I106
sVcourse
p1376
I196
sVexperiments
p1377
I1675
sVcuts
p1378
I3561
sVargued
p1379
I3699
sVdilemma
p1380
I4101
sVcold
p1381
I593
sVstill
p1382
I128
sVbirds
p1383
I1965
sVtendency
p1384
I2282
sVjess
p1385
I3297
sVgroup
p1386
I240
sVthank
p1387
I3099
sVhe's
p1388
I846
sVtorn
p1389
I4127
sVinteresting
p1390
I1327
sVmantle
p1391
I2306
sVforms
p1392
I828
sVplatform
p1393
I1500
sVwindow
p1394
I889
sVoffers
p1395
I2494
sVsuspicion
p1396
I3875
sVpolicy
p1397
I432
sVmail
p1398
I2394
sVmain
p1399
I894
sVdecades
p1400
I3202
sVtexas
p1401
I1586
sVhappened
p1402
I683
sVcorrespondence
p1403
I4056
sVlonely
p1404
I4153
sVsacred
p1405
I2898
sVthereby
p1406
I3222
sVviews
p1407
I2216
sVnation
p1408
I746
sV1955
p1409
I3783
sVrecords
p1410
I1180
sV1957
p1411
I2319
sV1956
p1412
I3784
sVworld's
p1413
I3150
sV1953
p1414
I3994
sVhalf
p1415
I352
sVnot
p1416
I29
sVnow
p1417
I87
sV1959
p1418
I1055
sVhall
p1419
I667
sVnor
p1420
I502
sVwagon
p1421
I2035
sVterm
p1422
I1377
sVshouted
p1423
I2790
sVname
p1424
I325
sVlies
p1425
I2559
sVopera
p1426
I2365
sVjames
p1427
I1070
sVdrop
p1428
I1878
sVlocked
p1429
I3522
sVestablishing
p1430
I3988
sVpossibilities
p1431
I2654
sVrealistic
p1432
I3262
sVrock
p1433
I1446
sVentirely
p1434
I1183
sVquarter
p1435
I3184
sVconcerts
p1436
I3970
sVrealism
p1437
I4229
sVr
I2918
sVsquare
p1438
I714
sVfired
p1439
I2566
sVscheme
p1440
I3317
sVyeah
p1441
I4057
sVpond
p1442
I4155
sVbegun
p1443
I2200
sVyear
p1444
I152
sVassumption
p1445
I2723
sVgirl
p1446
I437
sVworried
p1447
I3146
sVlesson
p1448
I3676
sVtried
p1449
I598
sVcanada
p1450
I3235
sVliving
p1451
I512
sVshown
p1452
I606
sVjackson
p1453
I3082
sVopened
p1454
I790
sVspace
p1455
I537
sVprofit
p1456
I3763
sVfurthermore
p1457
I2827
sVinterference
p1458
I2477
sVfactory
p1459
I3428
sVrational
p1460
I4131
sVlooking
p1461
I577
sVattracted
p1462
I4064
sVcontained
p1463
I1855
sVinvestigation
p1464
I2204
sVemerged
p1465
I4003
sVformula
p1466
I1905
sVprotected
p1467
I3515
sVreceiving
p1468
I3207
sVcorrect
p1469
I2171
sVshows
p1470
I1149
sVinevitably
p1471
I2908
sVe.
p1472
I1253
sVtheory
p1473
I807
sVstate
p1474
I123
sVcars
p1475
I956
sVmillion
p1476
I474
sVseventh
p1477
I3497
sVpossibility
p1478
I1239
sVquite
p1479
I344
sVcalifornia
p1480
I1716
sVbesides
p1481
I1685
sVohio
p1482
I2885
sVpoems
p1483
I1326
sVmarine
p1484
I2061
sVinevitable
p1485
I3298
sVcard
p1486
I3995
sVcare
p1487
I627
sVadvance
p1488
I1899
sVtraining
p1489
I649
sVlanguage
p1490
I975
sVtransition
p1491
I3362
sVmodest
p1492
I3616
sVbritish
p1493
I899
sVhonest
p1494
I2387
sVmotion
p1495
I2067
sVturn
p1496
I412
sVplace
p1497
I171
sVvision
p1498
I1996
sVswing
p1499
I4254
sVpromotion
p1500
I3971
sVwidow
p1501
I3945
sVstar
p1502
I4067
sVthink
p1503
I209
sVwaited
p1504
I1554
sVfirst
p1505
I84
sVblind
p1506
I2343
sVflying
p1507
I2574
sVstriking
p1508
I2845
sVspoken
p1509
I2955
sVlegislation
p1510
I2441
sVvariables
p1511
I4028
sVfaculty
p1512
I1472
sVsymbolic
p1513
I3178
sVone
p1514
I39
sVwilliams
p1515
I3416
sVamericans
p1516
I1166
sVfast
p1517
I1395
sVdirectly
p1518
I733
sVspanish
p1519
I3088
sVcarry
p1520
I1222
sVimpossible
p1521
I1292
sVmessage
p1522
I1734
sVdrove
p1523
I1793
sVopen
p1524
I300
sVgeorge
p1525
I813
sV'em
p1526
I2704
sVsize
p1527
I751
sVcity
p1528
I238
sVgiven
p1529
I251
sVnecessarily
p1530
I2211
sVsheet
p1531
I2474
sVsilent
p1532
I2275
sVdistrict
p1533
I765
sVcaught
p1534
I1093
sVslept
p1535
I3915
sVdressed
p1536
I3041
sVplastic
p1537
I3429
sVanyone
p1538
I742
sVindicate
p1539
I1360
sVcooling
p1540
I2668
sV2
I203
sVtragic
p1541
I3315
sValfred
p1542
I2157
sVconvention
p1543
I3764
sVwhite
p1544
I267
sVstructures
p1545
I3498
sVframe
p1546
I1470
sVfriend
p1547
I776
sVgives
p1548
I933
sVeyes
p1549
I227
sVmostly
p1550
I2527
sVthat
p1551
I9
sVpittsburgh
p1552
I4058
sVseason
p1553
I1028
sVmoscow
p1554
I2372
sVuniverse
p1555
I1544
sVaccurately
p1556
I4221
sVjane
p1557
I3166
sVshock
p1558
I3517
sVflowers
p1559
I1981
sVrepresenting
p1560
I3551
sVthan
p1561
I69
sVpopulation
p1562
I759
sV11
p1563
I1797
sV10
p1564
I670
sVtelevision
p1565
I2248
sV12
p1566
I1128
sV15
p1567
I950
sVeffective
p1568
I806
sV17
p1569
I2740
sV16
p1570
I2092
sV19
p1571
I3404
sV18
p1572
I2065
sVrequire
p1573
I1258
sVcrowded
p1574
I3407
sVdiplomatic
p1575
I3765
sVnamely
p1576
I3335
sVfuture
p1577
I422
sVemphasis
p1578
I1932
sVwere
p1579
I41
sVcards
p1580
I3047
sVasleep
p1581
I3579
sVoutcome
p1582
I4010
sVrussia
p1583
I1497
sVtractor
p1584
I4218
sVand
p1585
I5
sVmountain
p1586
I3345
sVgathering
p1587
I3788
sVregister
p1588
I3990
sVsan
p1589
I1566
sVsam
p1590
I1379
sVremained
p1591
I1014
sVappreciate
p1592
I3937
sVann
p1593
I3686
sVparking
p1594
I3519
sVturned
p1595
I298
sVargument
p1596
I1761
sVvoices
p1597
I2951
sVsay
p1598
I182
sVimpressions
p1599
I4048
sVanger
p1600
I2307
sVbreakfast
p1601
I2103
sVsaw
p1602
I279
sVany
p1603
I85
sVsat
p1604
I676
sVpublicity
p1605
I3901
sVoffering
p1606
I3812
sVcoal
p1607
I3386
sVefficient
p1608
I3405
sVveteran
p1609
I3856
sVmanufacturers
p1610
I2357
sVideas
p1611
I718
sVnote
p1612
I830
sVequipment
p1613
I603
sVmr.
p1614
I119
sVpotential
p1615
I1657
sVtake
p1616
I161
sVobjective
p1617
I1176
sVperformance
p1618
I862
sVwonder
p1619
I1634
sV200
p1620
I2949
sVbegin
p1621
I1286
sVsure
p1622
I370
sVpain
p1623
I1223
sVshade
p1624
I3799
sVtheatre
p1625
I3636
sVopposite
p1626
I1337
sVtrack
p1627
I2952
sVprice
p1628
I988
sVknew
p1629
I235
sVhealthy
p1630
I3322
sVpaid
p1631
I702
sVfalls
p1632
I3391
sVvisitors
p1633
I3067
sVprinted
p1634
I3033
sVsheets
p1635
I3540
sVremarks
p1636
I2139
sVknee
p1637
I3168
sVamerica
p1638
I510
sVpages
p1639
I3499
sVforever
p1640
I2864
sVoperate
p1641
I2300
sVespecially
p1642
I629
sVsurprising
p1643
I3609
sVcloth
p1644
I2606
sVconsidered
p1645
I675
sVgyro
p1646
I3976
sVaverage
p1647
I800
sVlater
p1648
I233
sVsteady
p1649
I2692
sVdrive
p1650
I1025
sVfederal
p1651
I390
sVslaves
p1652
I2555
sVnuclear
p1653
I915
sVprofessional
p1654
I1017
sVsenior
p1655
I3263
sVsalt
p1656
I2437
sVlaws
p1657
I1226
sVshop
p1658
I1765
sVwalking
p1659
I2087
sVshot
p1660
I951
sVdiscuss
p1661
I3806
sVshow
p1662
I331
sVgerman
p1663
I1276
sVfiled
p1664
I3326
sVpursuant
p1665
I3847
sVcontemporary
p1666
I1727
sVmerit
p1667
I3658
sVfifty
p1668
I1618
sVdiscovered
p1669
I1480
sVhopes
p1670
I2294
sVbright
p1671
I1246
sVcorner
p1672
I924
sVimagined
p1673
I3822
sVfifth
p1674
I2925
sVground
p1675
I529
sVfather's
p1676
I2911
sVslow
p1677
I1867
sVratio
p1678
I3058
sVtitle
p1679
I1413
sVhills
p1680
I2233
sVnodded
p1681
I2199
sVstained
p1682
I3785
sVproportion
p1683
I3643
sV3
I332
sVjunior
p1684
I1440
sVjew
p1685
I3957
sVonly
p1686
I72
sVgoing
p1687
I231
sVblack
p1688
I477
sVtreasury
p1689
I2757
sVthompson
p1690
I2946
sVenthusiasm
p1691
I3731
sVawareness
p1692
I3366
sVdispute
p1693
I3243
sVlighted
p1694
I3705
sVget
p1695
I135
sVassistant
p1696
I3074
sVjazz
p1697
I1086
sVmission
p1698
I1394
sVkansas
p1699
I3508
sVcannot
p1700
I376
sVnearly
p1701
I736
sVinvited
p1702
I3991
sVinstalled
p1703
I3108
sVmorse
p1704
I3661
sVsecondary
p1705
I3486
sVprime
p1706
I2496
sVreveal
p1707
I3594
sVregarding
p1708
I2782
sVartist
p1709
I1976
sVseldom
p1710
I3208
sVthermal
p1711
I3271
sVyield
p1712
I3174
sVmorning
p1713
I458
sVnaked
p1714
I3430
sVnetwork
p1715
I3602
sVmiles
p1716
I575
sVbombs
p1717
I3124
sVwhere
p1718
I108
sVhusband
p1719
I791
sVignored
p1720
I3706
sVdeclared
p1721
I1661
sVconcert
p1722
I2846
sVburst
p1723
I3270
sVcommitted
p1724
I3807
sVcomparable
p1725
I2720
sVseat
p1726
I2078
sVrelative
p1727
I2431
sVelected
p1728
I3316
sVj.
p1729
I879
sVcollege
p1730
I365
sVreaders
p1731
I2995
sVhell
p1732
I1138
sVstanley
p1733
I3179
sVcalendar
p1734
I3751
sVconnected
p1735
I3340
sVperformed
p1736
I3165
sVconcern
p1737
I1101
sVsurfaces
p1738
I3737
sVbrave
p1739
I4270
sVkate
p1740
I2719
sVmaturity
p1741
I2840
sVways
p1742
I821
sVjumped
p1743
I3169
sVreview
p1744
I2021
sVdefinite
p1745
I3008
sVrepresentatives
p1746
I2714
sVweapons
p1747
I1819
sVoutside
p1748
I460
sVbureau
p1749
I2608
sVbetween
p1750
I136
sVevidently
p1751
I4159
sVreading
p1752
I730
sVacross
p1753
I341
sVnotice
p1754
I1906
sVjobs
p1755
I1709
sVaugust
p1756
I2108
sVscreen
p1757
I2314
sVplanes
p1758
I3952
sV26
p1759
I3408
sVrapidly
p1760
I1710
sVblame
p1761
I3229
sVclayton
p1762
I3905
sVdestruction
p1763
I2893
sVarticle
p1764
I1610
sVcities
p1765
I1000
sVcome
p1766
I154
sVrecall
p1767
I2833
sVconcentrated
p1768
I3527
sVreaction
p1769
I853
sVdates
p1770
I3562
sVpanels
p1771
I2417
sVwally
p1772
I4119
sVmany
p1773
I100
sVregion
p1774
I1427
sVsympathetic
p1775
I3136
sVaccording
p1776
I739
sVcontract
p1777
I1850
sVsomewhere
p1778
I1858
sVtour
p1779
I2576
sVsenator
p1780
I2783
sVexpression
p1781
I1373
sVscope
p1782
I3874
sVcan't
p1783
I599
sVnearby
p1784
I2500
sVduty
p1785
I1839
sVamong
p1786
I260
sVsba
p1787
I4145
sVcancer
p1788
I4115
sVcolor
p1789
I740
sVshirt
p1790
I3844
sVpot
p1791
I3794
sVcolony
p1792
I3795
sVperiod
p1793
I366
sVfootball
p1794
I3046
sV60
p1795
I2418
sVmaintained
p1796
I2332
sVstretched
p1797
I3258
sVcouldn't
p1798
I560
sVapproval
p1799
I2197
sVmoreover
p1800
I1220
sVcrew
p1801
I3042
sVboat
p1802
I1517
sVmoore
p1803
I4240
sVconsidering
p1804
I2349
sVsave
p1805
I1776
sVarts
p1806
I1670
sVcapable
p1807
I1662
sVstretch
p1808
I4022
sVwest
p1809
I410
sVinformed
p1810
I1973
sVvacation
p1811
I2358
sVmark
p1812
I1321
sVbreath
p1813
I2114
sVworkshop
p1814
I4246
sVcombined
p1815
I2768
sVpeaceful
p1816
I4045
sVstaring
p1817
I3934
sVhardly
p1818
I1009
sVmary
p1819
I1249
sVwants
p1820
I1495
sVdirection
p1821
I768
sVtransportation
p1822
I2589
sVoffered
p1823
I1314
sVformed
p1824
I1418
sVdramatic
p1825
I1745
sVminister
p1826
I1840
sVstems
p1827
I3299
sVcareful
p1828
I1799
sVformer
p1829
I788
sVthose
p1830
I117
sVpilot
p1831
I2522
sVcase
p1832
I269
sVmyself
p1833
I811
sVdeveloping
p1834
I2154
sVthese
p1835
I79
sVisolated
p1836
I3177
sVmount
p1837
I4011
sVengineering
p1838
I2424
sVcast
p1839
I2466
sVcure
p1840
I3733
sVachieve
p1841
I2180
sVovercome
p1842
I4034
sVpolicies
p1843
I1616
sVresidence
p1844
I3687
sVnewspaper
p1845
I1695
sVsituation
p1846
I498
sVeugene
p1847
I4150
sVpasses
p1848
I3926
sVshouting
p1849
I3388
sVconferences
p1850
I4138
sVeventually
p1851
I2170
sVdetermination
p1852
I2876
sVsoil
p1853
I2084
sVengaged
p1854
I2340
sVcoffee
p1855
I1385
sVquiet
p1856
I1422
sVmiddle
p1857
I898
sVgood
p1858
I124
sVdrug
p1859
I4214
sVsomebody
p1860
I1921
sVtechnology
p1861
I2567
sVworry
p1862
I2062
sVmovements
p1863
I2395
sVdifferent
p1864
I310
sVmissiles
p1865
I3395
sVdevelop
p1866
I1204
sVvivid
p1867
I4176
sVdoctor
p1868
I1082
sVpay
p1869
I588
sVgranted
p1870
I2005
sVlocking
p1871
I3473
sVsame
p1872
I143
sVtrip
p1873
I1357
sVpoetic
p1874
I3504
sVspeech
p1875
I1835
sVa.m.
p1876
I2812
sVstepped
p1877
I2779
sVconstructed
p1878
I3027
sVevents
p1879
I1066
sVweek
p1880
I351
sVoil
p1881
I1140
sVcenturies
p1882
I2442
sVfoam
p1883
I2966
sVdriver
p1884
I2295
sVdirector
p1885
I1061
sVpersons
p1886
I869
sVrunning
p1887
I860
sVedges
p1888
I2956
sVwidespread
p1889
I3613
sVdelicate
p1890
I3842
sVintended
p1891
I2456
sVchanging
p1892
I2540
sVtradition
p1893
I1150
sVapproaching
p1894
I3906
sVallowances
p1895
I4117
sVtheater
p1896
I2155
sVlargely
p1897
I1620
sVpennsylvania
p1898
I2495
sVno
p1899
I59
sVconstitutional
p1900
I4132
sVroughly
p1901
I4140
sVsevere
p1902
I2865
sVcosts
p1903
I557
sVcomes
p1904
I753
sVbottle
p1905
I1429
sVcommunications
p1906
I3804
sVmodel
p1907
I1408
sVgrounds
p1908
I1923
sVscientists
p1909
I3075
sVbodies
p1910
I1722
sVcharged
p1911
I1982
sVsummer
p1912
I771
sVoutdoor
p1913
I3833
sVbeing
p1914
I139
sVmoney
p1915
I367
sVdancers
p1916
I3505
sVrest
p1917
I619
sVcommunities
p1918
I2727
sVviolent
p1919
I3348
sVkill
p1920
I1771
sVactor
p1921
I4207
sVaspect
p1922
I2396
sVsilver
p1923
I3637
sVtouch
p1924
I1240
sVn
I2900
sVspeed
p1925
I1311
sVjefferson
p1926
I3849
sVblow
p1927
I3349
sVannouncement
p1928
I4230
sVdeath
p1929
I348
sVnick
p1930
I4077
sVthinking
p1931
I706
sVrose
p1932
I1264
sVseems
p1933
I372
sVexcept
p1934
I546
sVimprovement
p1935
I2809
sVinstrument
p1936
I2381
sVverse
p1937
I3724
sVsetting
p1938
I1849
sVpile
p1939
I4141
sV4
I467
sVsamples
p1940
I3709
sVrepublic
p1941
I2582
sVstruck
p1942
I1887
sVstructural
p1943
I4082
sVreal
p1944
I374
sVaspects
p1945
I1731
sVaround
p1946
I173
sVrules
p1947
I1277
sVspecimen
p1948
I4216
sVpapers
p1949
I2188
sVvirginia
p1950
I1441
sVdark
p1951
I534
sVtraffic
p1952
I1595
sVinsist
p1953
I3841
sVlistening
p1954
I2866
sVworld
p1955
I127
sVrailroad
p1956
I1953
sVaccepted
p1957
I1130
sVlady
p1958
I1362
sVvague
p1959
I4161
sVrear
p1960
I2195
sVfurniture
p1961
I2870
sVsatisfaction
p1962
I3796
sVfortune
p1963
I4059
sVadams
p1964
I2632
sVstranger
p1965
I2804
sVkennedy
p1966
I743
sVcollective
p1967
I3399
sVserves
p1968
I3006
sVfacing
p1969
I3261
sVchamber
p1970
I2421
sVaudience
p1971
I919
sVeither
p1972
I338
sVclay
p1973
I1074
sVserved
p1974
I891
sVreduced
p1975
I1378
sVtwelve
p1976
I2296
sVsatisfactory
p1977
I2822
sVlearning
p1978
I1869
sVexposed
p1979
I3190
sVcompetition
p1980
I1746
sVlucy
p1981
I2476
sVcalculated
p1982
I3151
sVeddie
p1983
I3529
sVcellar
p1984
I3953
sVrespect
p1985
I848
sVimages
p1986
I2969
sVroot
p1987
I3536
sVquestionnaire
p1988
I3018
sVdivine
p1989
I3186
sVbigger
p1990
I3219
sVmatching
p1991
I3319
sVprovided
p1992
I786
sVmood
p1993
I2972
sVtube
p1994
I3453
sVrecorded
p1995
I2585
sVlegal
p1996
I1511
sVmoon
p1997
I1859
sVcritical
p1998
I1950
sVbridges
p1999
I4039
sVprovides
p2000
I1347
sVknife
p2001
I1419
sVleaned
p2002
I2947
sVmeasuring
p2003
I3610
sVwelcome
p2004
I2247
sVassembly
p2005
I2224
sVscientific
p2006
I1266
sVpower
p2007
I284
sVpoem
p2008
I2330
sVseconds
p2009
I3862
sVpapa
p2010
I2813
sVequivalent
p2011
I2430
sVunusual
p2012
I1756
sVbroken
p2013
I1757
sVmeets
p2014
I3114
sVleadership
p2015
I1168
sVinnocence
p2016
I3725
sVexciting
p2017
I3662
sVthrow
p2018
I2660
sVearlier
p2019
I694
sVlock
p2020
I4186
sVon
p2021
I20
sVstone
p2022
I1942
sVcentral
p2023
I609
sVstations
p2024
I1273
sVisland
p2025
I605
sVindustry
p2026
I592
sVviolence
p2027
I2448
sVdiscussed
p2028
I1696
sVthousands
p2029
I2399
sVpractical
p2030
I1629
sVtremendous
p2031
I3023
sVjourney
p2032
I3728
sVstand
p2033
I688
sVact
p2034
I340
sVmixed
p2035
I3007
sVluck
p2036
I2362
sVor
p2037
I33
sVroad
p2038
I496
sVquietly
p2039
I2278
sVlands
p2040
I4116
sVroute
p2041
I2588
sVutterly
p2042
I3835
sVburning
p2043
I2289
sVreactions
p2044
I2627
sVcommunication
p2045
I1644
sVimage
p2046
I887
sVskilled
p2047
I3541
sVvariable
p2048
I3031
sVsecure
p2049
I3557
sVrising
p2050
I1778
sVlively
p2051
I3932
sVdetermine
p2052
I1005
sVparties
p2053
I1884
sVoperator
p2054
I2264
sVvaluable
p2055
I2488
sVhappening
p2056
I3729
sVyour
p2057
I109
sVupstairs
p2058
I3778
sVher
p2059
I42
sVarea
p2060
I295
sVassumed
p2061
I1521
sVstrictly
p2062
I3306
sVthere
p2063
I45
sVphiladelphia
p2064
I2256
sVglasses
p2065
I3641
sVchristianity
p2066
I3520
sVstrip
p2067
I3612
sVstart
p2068
I657
sVpoured
p2069
I3693
sVlow
p2070
I579
sVlot
p2071
I829
sVsale
p2072
I2552
sVvalley
p2073
I1493
sVfish
p2074
I3180
sVhanover
p2075
I1688
sVcomplete
p2076
I543
sVenough
p2077
I212
sVregard
p2078
I1212
sVdelayed
p2079
I4128
sVsophisticated
p2080
I4004
sVbrain
p2081
I2482
sVsucceeded
p2082
I3284
sVtrying
p2083
I617
sVwith
p2084
I17
sVbuying
p2085
I3552
sVhandsome
p2086
I2759
sVthey're
p2087
I1697
sVoctober
p2088
I2205
sVarranged
p2089
I2518
sVromantic
p2090
I3406
sVwasn't
p2091
I659
sVvice
p2092
I2728
sVnearest
p2093
I4194
sVtaught
p2094
I2235
sVdirty
p2095
I3034
sV1954
p2096
I2429
sVgrass
p2097
I2111
sVbuilders
p2098
I3858
sVagree
p2099
I2192
sVdetailed
p2100
I2153
sVgone
p2101
I503
sVvehicles
p2102
I2124
sVhated
p2103
I3755
sVjohnny
p2104
I3544
sVaf
p2105
I103
sVtaste
p2106
I1881
sVcertain
p2107
I306
sVaj
p2108
I897
sVmoved
p2109
I545
sVsales
p2110
I777
sVdeep
p2111
I978
sVan
p2112
I35
sVimagination
p2113
I1694
sVas
p2114
I18
sVconservative
p2115
I3457
sVat
p2116
I23
sVfile
p2117
I1356
sVaids
p2118
I3830
sVwatched
p2119
I1338
sVmoves
p2120
I3059
sVportland
p2121
I4199
sVfilm
p2122
I1129
sVfill
p2123
I2250
sVagain
p2124
I170
sVpersonnel
p2125
I1447
sVdrivers
p2126
I4247
sVstorage
p2127
I2706
sVvocational
p2128
I1409
sVinsurance
p2129
I2422
sVfield
p2130
I354
sV5
I728
sVyou
p2131
I40
sVthousand
p2132
I1110
sVpoor
p2133
I942
sVbriefly
p2134
I2934
sVcongress
p2135
I666
sVseparate
p2136
I1384
sVstudents
p2137
I451
sVsymbol
p2138
I2102
sVtime
p2139
I77
sVmiriam
p2140
I3574
sVa.
p2141
I947
sVimportant
p2142
I262
sVmassachusetts
p2143
I2257
sVaccounts
p2144
I2933
sVshe's
p2145
I2308
sVincluded
p2146
I1113
sVpool
p2147
I959
sVjuniors
p2148
I3441
sVfiscal
p2149
I881
sVremote
p2150
I3385
sVcalls
p2151
I1571
sVwife
p2152
I421
sVcurve
p2153
I2481
sVsounded
p2154
I3153
sVobserve
p2155
I4160
sVmass
p2156
I1100
sVadam
p2157
I2542
sVremarkable
p2158
I2378
sVstarting
p2159
I1614
sVoriginal
p2160
I1048
sVexternal
p2161
I2613
sVrepresent
p2162
I2913
sVall
p2163
I43
sVconsider
p2164
I832
sVchinese
p2165
I2006
sVcaused
p2166
I1193
sVsuburban
p2167
I3647
sVlack
p2168
I970
sVdollar
p2169
I2432
sVmonth
p2170
I796
sVblanche
p2171
I4105
sVcoach
p2172
I4253
sVsubtle
p2173
I4097
sVwelfare
p2174
I2125
sVfollow
p2175
I1114
sVsettlement
p2176
I3984
sVreligious
p2177
I608
sVchildren
p2178
I278
sVcauses
p2179
I1912
sVparticles
p2180
I2639
sVapartment
p2181
I1342
sVcoolidge
p2182
I4036
sVchain
p2183
I2225
sVhunting
p2184
I3244
sVtv
p2185
I2857
sVsubjected
p2186
I4231
sVencourage
p2187
I2400
sVopportunities
p2188
I2213
sVspirit
p2189
I541
sVto
p2190
I6
sVtail
p2191
I4235
sVprogram
p2192
I237
sVcommander
p2193
I3786
sVsmile
p2194
I1943
sVpresentation
p2195
I3307
sVassist
p2196
I3949
sVactivities
p2197
I925
sVwoman
p2198
I428
sVappointment
p2199
I3777
sVreturned
p2200
I922
sVvirtue
p2201
I3573
sVsitting
p2202
I1133
sVvery
p2203
I125
sVramey
p2204
I3732
sVhughes
p2205
I3868
sVfat
p2206
I1875
sVresistance
p2207
I2325
sVsons
p2208
I3710
sVworst
p2209
I3218
sVdecide
p2210
I2753
sVfall
p2211
I691
sVwinning
p2212
I3518
sVdifference
p2213
I687
sVcondition
p2214
I1181
sVabandoned
p2215
I4157
sVleads
p2216
I3321
sVheaven
p2217
I2614
sVwashing
p2218
I2519
sVmothers
p2219
I4118
sV--
p2220
I38
sVlouis
p2221
I1488
sVlist
p2222
I775
sVjoined
p2223
I2012
sVlarge
p2224
I270
sVsang
p2225
I3617
sVsand
p2226
I3735
sVharry
p2227
I3147
sVsmall
p2228
I176
sVbench
p2229
I3139
sVsmith
p2230
I2095
sVi'll
p2231
I547
sVneighborhood
p2232
I1951
sVten
p2233
I613
sVtea
p2234
I3652
sVstreets
p2235
I1847
sVcash
p2236
I3048
sVpast
p2237
I342
sVrate
p2238
I462
sVperception
p2239
I3675
sVdesign
p2240
I930
sVperspective
p2241
I3950
sVlawyer
p2242
I2590
sVpass
p2243
I1203
sVfurther
p2244
I440
sVinvestment
p2245
I2568
sVconscience
p2246
I2751
sVtrustees
p2247
I4054
sVwhat
p2248
I63
sVstood
p2249
I457
sVdarkness
p2250
I2615
sVrichard
p2251
I1546
sVsun
p2252
I955
sVsection
p2253
I522
sVlawrence
p2254
I2869
sVbrief
p2255
I1483
sVemotions
p2256
I2616
sVthickness
p2257
I2546
sVversion
p2258
I2112
sVattitudes
p2259
I2338
sVdestroyed
p2260
I2879
sVlearned
p2261
I903
sVpublic
p2262
I206
sVcontrast
p2263
I1466
sVmovement
p2264
I820
sVfull
p2265
I416
sVchristian
p2266
I709
sVeditorial
p2267
I2643
sVestate
p2268
I2186
sVeternal
p2269
I3678
sVloose
p2270
I2130
sVcomponent
p2271
I4142
sVballet
p2272
I2455
sVanswers
p2273
I2529
sVnation's
p2274
I2983
sVhours
p2275
I567
sVtwenty-five
p2276
I4126
sVoperating
p2277
I1243
sVexcess
p2278
I2628
sVdirections
p2279
I3567
sVnovember
p2280
I1455
sVstrong
p2281
I478
sVtragedy
p2282
I2271
sVsearch
p2283
I1672
sVbible
p2284
I1900
sVnaval
p2285
I3286
sVahead
p2286
I973
sVdifficulty
p2287
I1430
sVinspired
p2288
I4060
sVlosses
p2289
I2406
sVjohnnie
p2290
I3941
sVexperience
p2291
I349
sVprior
p2292
I2341
sVamount
p2293
I586
sVlaughing
p2294
I3814
sVthursday
p2295
I3324
sVadvertising
p2296
I2246
sVgear
p2297
I4040
sVsocial
p2298
I249
sVaction
p2299
I327
sVnarrow
p2300
I1758
sVmyra
p2301
I3898
sVstruggle
p2302
I1795
sVvia
p2303
I2328
sVfollowed
p2304
I582
sVfamily
p2305
I289
sVsuddenly
p2306
I664
sVmarginal
p2307
I3992
sVafrica
p2308
I2462
sVmarriages
p2309
I3851
sVput
p2310
I207
sVregiment
p2311
I4163
sVaimed
p2312
I4242
sVtrained
p2313
I2096
sVouter
p2314
I3484
sVsuits
p2315
I4133
sVarmed
p2316
I1862
sVgolf
p2317
I3224
sVreadily
p2318
I2602
sVlanguages
p2319
I2763
sVconventional
p2320
I2179
sVeye
p2321
I865
sVtakes
p2322
I1262
sVdistinct
p2323
I2679
sVobjectives
p2324
I2874
sVcontains
p2325
I2926
sVcharge
p2326
I866
sVsitter
p2327
I4236
sV6
I931
sVtaken
p2328
I343
sVchicken
p2329
I3028
sVinjury
p2330
I3859
sVmarkets
p2331
I3492
sVminor
p2332
I1938
sVmore
p2333
I57
sVhorses
p2334
I1604
sVflat
p2335
I1636
sVdoor
p2336
I307
sVknows
p2337
I1090
sVdefinition
p2338
I2883
sVdivision
p2339
I998
sVcompany
p2340
I328
sVemission
p2341
I3417
sVtelephone
p2342
I1433
sVtested
p2343
I2957
sVgermans
p2344
I3827
sVain't
p2345
I2449
sVstick
p2346
I2881
sVbroke
p2347
I1509
sVparticular
p2348
I554
sVknown
p2349
I395
sVmounted
p2350
I2487
sVproducing
p2351
I3152
sVsovereignty
p2352
I3730
sVglad
p2353
I2935
sVtown
p2354
I456
sVskywave
p2355
I3375
sVnone
p2356
I987
sVhour
p2357
I707
sVstrain
p2358
I3445
sVscience
p2359
I789
sVequation
p2360
I3308
sVentertainment
p2361
I3629
sVroosevelt
p2362
I3753
sVremain
p2363
I1161
sVsudden
p2364
I2896
sVnine
p2365
I1346
sVresources
p2366
I1496
sVmorgan
p2367
I1513
sVlearn
p2368
I1287
sVknocked
p2369
I3438
sVmale
p2370
I3011
sVhistory
p2371
I333
sVbeautiful
p2372
I824
sVcompare
p2373
I3754
sVstated
p2374
I1279
sVpont
p2375
I3162
sVshare
p2376
I1104
sVaccept
p2377
I1504
sVstates
p2378
I163
sVpushed
p2379
I2117
sVminimum
p2380
I1600
sVnumbers
p2381
I838
sVsense
p2382
I311
sVsharp
p2383
I1524
sVswung
p2384
I2324
sVdress
p2385
I1653
sVspecies
p2386
I3000
sVf.
p2387
I1888
sVfirmly
p2388
I2284
sV!
I78
sVinformation
p2389
I361
sVneeds
p2390
I665
sVcourt
p2391
I417
sVgoal
p2392
I1860
sVrather
p2393
I256
sVdepartments
p2394
I4078
sVcomfort
p2395
I2577
sVpressing
p2396
I4139
sVconducted
p2397
I2052
sVstayed
p2398
I1449
sVoccasionally
p2399
I2302
sVpossibly
p2400
I1813
sVrecording
p2401
I3487
sVplant
p2402
I845
sVplans
p2403
I954
sVadvice
p2404
I2163
sVderived
p2405
I2875
sVexpenditures
p2406
I2484
sVreflect
p2407
I4177
sVreplace
p2408
I3570
sVplane
p2409
I934
sVblood
p2410
I871
sVcoming
p2411
I573
sVpat
p2412
I3137
sVresponse
p2413
I1415
sVa
I7
sVshort
p2414
I453
sVsusan
p2415
I2973
sVcoat
p2416
I2591
sVquoted
p2417
I4026
sVauthor
p2418
I2412
sVperhaps
p2419
I316
sVshore
p2420
I1812
sVresponsibility
p2421
I901
sVfundamental
p2422
I2243
sVbanks
p2423
I3001
sVpleasure
p2424
I1786
sVdream
p2425
I1735
sVplaying
p2426
I1068
sVthat's
p2427
I527
sVreplied
p2428
I1956
sVmexican
p2429
I4209
sVhelp
p2430
I312
sVdon't
p2431
I190
sVseptember
p2432
I2011
sVdeveloped
p2433
I597
sVsoon
p2434
I488
sVfabrics
p2435
I3702
sVtrade
p2436
I719
sVheld
p2437
I369
sVattitude
p2438
I1001
sValready
p2439
I358
sVthrough
p2440
I104
sVcommittee
p2441
I602
sVsigns
p2442
I1603
sVexistence
p2443
I994
sVsmiling
p2444
I3035
sVsuffer
p2445
I3320
sVavenue
p2446
I2413
sVits
p2447
I65
sVroots
p2448
I3823
sV24
p2449
I2322
sV25
p2450
I1333
sVstyle
p2451
I1102
sV27
p2452
I4005
sV20
p2453
I1175
sV21
p2454
I2373
sV22
p2455
I2433
sV23
p2456
I2374
sVgreatly
p2457
I1783
sVfate
p2458
I3302
sVunity
p2459
I1543
sVactually
p2460
I607
sVlate
p2461
I553
sVabsence
p2462
I2106
sVparts
p2463
I943
sVsystems
p2464
I803
sVattended
p2465
I3105
sVremarked
p2466
I3374
sVcross
p2467
I2045
sVfactories
p2468
I4243
sVcool
p2469
I1798
sVmight
p2470
I149
sVhaven't
p2471
I2890
sVfool
p2472
I2981
sVevening
p2473
I774
sVreturn
p2474
I550
sVcalm
p2475
I3172
sVseeking
p2476
I2531
sVfood
p2477
I690
sVcomponents
p2478
I2069
sVreflected
p2479
I2644
sVinch
p2480
I2871
sVwalls
p2481
I1563
sVyou've
p2482
I1649
sVbullet
p2483
I3798
sVfoot
p2484
I1552
sVsen.
p2485
I3554
sVassociation
p2486
I785
sVinstructions
p2487
I3122
sVmystery
p2488
I2834
sVeasily
p2489
I1003
sVinstances
p2490
I3611
sValways
p2491
I199
sVpresented
p2492
I1332
sVcourses
p2493
I1809
sVsomeone
p2494
I1156
sVstopped
p2495
I809
sVeager
p2496
I3877
sVfiber
p2497
I3925
sVturns
p2498
I2886
sVfound
p2499
I177
sVfriendship
p2500
I3900
sVisn't
p2501
I1111
sVreferred
p2502
I2475
sVheavy
p2503
I967
sVstatus
p2504
I1108
sVharm
p2505
I4143
sVeveryone
p2506
I1151
sVengland
p2507
I661
sVmental
p2508
I2619
sVweight
p2509
I1179
sVgeneration
p2510
I2071
sVhouse
p2511
I167
sVenergy
p2512
I1079
sVhard
p2513
I479
sVreduce
p2514
I1789
sVidea
p2515
I504
sVbrother
p2516
I1492
sVextended
p2517
I2033
sVexpect
p2518
I990
sVfist
p2519
I4144
sVmeasurement
p2520
I3223
sVoperation
p2521
I940
sVbeyond
p2522
I565
sVevent
p2523
I1353
sVreally
p2524
I353
sVanxious
p2525
I3640
sVmissed
p2526
I2801
sVwondered
p2527
I1928
sVitem
p2528
I2049
sVpresident's
p2529
I3789
sVrobert
p2530
I1312
sVsince
p2531
I155
sVresearch
p2532
I589
sVacting
p2533
I1820
sVconclusions
p2534
I3054
sVhealth
p2535
I1027
sVhill
p2536
I1501
sV7
I1147
sVissue
p2537
I669
sVoccurs
p2538
I3824
sVhighway
p2539
I2769
sVconceived
p2540
I3845
sVbelief
p2541
I1732
sVdirt
p2542
I2586
sVdestructive
p2543
I4137
sVfriday
p2544
I1851
sVstory
p2545
I662
sVpleasant
p2546
I2919
sVhouses
p2547
I1303
sVreason
p2548
I400
sVbase
p2549
I1184
sVmembers
p2550
I292
sVimagine
p2551
I1814
sVask
p2552
I816
sVequipped
p2553
I3055
sVteach
p2554
I2738
sVbeginning
p2555
I612
sVguest
p2556
I2858
sVthrown
p2557
I2784
sVdriven
p2558
I2564
sVowners
p2559
I3148
sVbenefits
p2560
I3344
sVterrible
p2561
I2503
sVyear's
p2562
I2594
sVamerican
p2563
I172
sVfruit
p2564
I3129
sVpure
p2565
I2007
sVleading
p2566
I1606
sVconsequence
p2567
I3595
sVfallen
p2568
I3198
sV1952
p2569
I3479
sVfeed
p2570
I867
sVmajor
p2571
I388
sVprobability
p2572
I3131
sVupper
p2573
I1520
sVfeel
p2574
I445
sVradical
p2575
I3605
sVnumber
p2576
I195
sVcontributions
p2577
I3714
sVfeet
p2578
I339
sVsympathy
p2579
I3085
sVstaining
p2580
I2970
sVtalked
p2581
I1919
sVdone
p2582
I299
sVfees
p2583
I3644
sVwages
p2584
I2648
sVmiss
p2585
I383
sVladies
p2586
I3797
sVhorse
p2587
I904
sVheads
p2588
I2584
sVtemperature
p2589
I764
sVjet
p2590
I3659
sVintroduction
p2591
I2859
sVtwenty
p2592
I1366
sVst.
p2593
I615
sVthreatening
p2594
I3964
sVleast
p2595
I283
sVplayer
p2596
I2207
sVpaint
p2597
I2984
sVstation
p2598
I1018
sVpassed
p2599
I646
sVmama
p2600
I2532
sVmaster
p2601
I1494
sVhundred
p2602
I590
sVchallenge
p2603
I3076
sVstore
p2604
I1462
sVlisted
p2605
I2523
sVselling
p2606
I3482
sVkids
p2607
I3354
sVstatement
p2608
I737
sVrelationship
p2609
I1218
sVbehind
p2610
I375
sVjohnson
p2611
I3234
sVhotel
p2612
I837
sVpark
p2613
I1154
sVimmediate
p2614
I1344
sVpart
p2615
I183
sVfavorable
p2616
I3309
sVrifle
p2617
I1747
sVnorms
p2618
I4244
sVbelieve
p2619
I487
sVconvinced
p2620
I2262
sVpercentage
p2621
I2453
sVfred
p2622
I3924
sVreflection
p2623
I3382
sVdiffusion
p2624
I4210
sVking
p2625
I1215
sVkind
p2626
I305
sVb
I1023
sVdouble
p2627
I2022
sVinstruction
p2628
I3986
sVranging
p2629
I3598
sVyouth
p2630
I1336
sVnevertheless
p2631
I1482
sVdetermined
p2632
I888
sVmarriage
p2633
I1135
sVsupposed
p2634
I1703
sVsister
p2635
I2905
sVtoward
p2636
I242
sVtreated
p2637
I1452
sVbuilder
p2638
I3632
sVmickey
p2639
I3668
sVranch
p2640
I3897
sVaug.
p2641
I4146
sVoutstanding
p2642
I2988
sVages
p2643
I2217
sVgreenwich
p2644
I3927
sVsubstantial
p2645
I1669
sVconcentration
p2646
I2389
sVorders
p2647
I1936
sVsell
p2648
I2687
sVlie
p2649
I1907
sVwilson
p2650
I1784
sVnights
p2651
I3325
sVbuilt
p2652
I1051
sVzero
p2653
I4198
sVdancing
p2654
I2620
sVsuperior
p2655
I2416
sVself
p2656
I2823
sVofficers
p2657
I1317
sVonset
p2658
I2920
sValso
p2659
I97
sVwithout
p2660
I169
sVbuild
p2661
I1267
sVsharpe
p2662
I3528
sVfinding
p2663
I2136
sVrelief
p2664
I1666
sVseized
p2665
I4258
sVplay
p2666
I483
sVadded
p2667
I587
sVelectric
p2668
I1605
sVretired
p2669
I3128
sValbert
p2670
I3665
sVeggs
p2671
I3115
sVsets
p2672
I1807
sVreach
p2673
I1029
sVbreaking
p2674
I4121
sVmost
p2675
I95
sVbrooklyn
p2676
I3688
sVhired
p2677
I4061
sVexperiences
p2678
I2133
sVplan
p2679
I471
sVsignificant
p2680
I1256
sV70
p2681
I4255
sVnothing
p2682
I223
sVfaint
p2683
I4100
sVwisdom
p2684
I2524
sVmeasured
p2685
I1673
sVapproved
p2686
I2810
sVachievement
p2687
I1718
sVstands
p2688
I1633
sVsalary
p2689
I2587
sVdealers
p2690
I3546
sVwindows
p2691
I2146
sVperformances
p2692
I3337
sVclear
p2693
I438
sVsometimes
p2694
I434
sVcover
p2695
I1219
sVthey'll
p2696
I3367
sVtraditional
p2697
I1389
sVpart-time
p2698
I3943
sVartistic
p2699
I3333
sVclean
p2700
I1594
sVvelocity
p2701
I3944
sVbarrel
p2702
I4184
sVscholarship
p2703
I3089
sVtubes
p2704
I4189
sVinstitutions
p2705
I1099
sVlying
p2706
I3049
sVthomas
p2707
I1076
sVparticularly
p2708
I696
sVphenomenon
p2709
I3112
sVgold
p2710
I2159
sVdoctors
p2711
I3587
sVrayburn
p2712
I2860
sVpermission
p2713
I3864
sVsession
p2714
I1361
sVrelation
p2715
I1769
sVfreight
p2716
I3779
sVcarefully
p2717
I1245
sVexcessive
p2718
I3549
sVuniform
p2719
I2208
sVfine
p2720
I632
sVfind
p2721
I229
sVoccupation
p2722
I4185
sVimpact
p2723
I1638
sVaccess
p2724
I4201
sVregulations
p2725
I3669
sVnorthern
p2726
I2371
sVjustice
p2727
I926
sVstairs
p2728
I2382
sVwrites
p2729
I2715
sVwriter
p2730
I1487
sVdistributed
p2731
I3890
sVunhappy
p2732
I4006
sVgrace
p2733
I2770
sVfailed
p2734
I1467
sVindian
p2735
I2167
sVpretty
p2736
I993
sVfactor
p2737
I1540
sV8
I1011
sVcircle
p2738
I1870
sVcolumns
p2739
I3036
sVhis
p2740
I19
sVhit
p2741
I936
sVmeanwhile
p2742
I3132
sVdependent
p2743
I2805
sVexpress
p2744
I2634
sVfinancing
p2745
I3253
sVtrees
p2746
I1063
sVfamous
p2747
I1207
sVfeels
p2748
I2460
sVgrew
p2749
I1720
sVactions
p2750
I1607
sVclosely
p2751
I1667
sVreply
p2752
I2682
sVduring
p2753
I168
sVhim
p2754
I49
sValexander
p2755
I2489
sVenemy
p2756
I1227
sVappeal
p2757
I1763
sVroles
p2758
I3238
sVcry
p2759
I2315
sVremove
p2760
I1954
sVcommon
p2761
I429
sVactivity
p2762
I912
sVriver
p2763
I611
sVwrote
p2764
I544
sVfishing
p2765
I3393
sVcharacteristics
p2766
I2172
sVbars
p2767
I2816
sVset
p2768
I219
sVart
p2769
I463
sVgrain
p2770
I3928
sVachieved
p2771
I1800
sVintelligence
p2772
I2339
sVuses
p2773
I1889
sVtended
p2774
I4223
sVsex
p2775
I1290
sVmatsuo
p2776
I3121
sVculture
p2777
I1915
sVsee
p2778
I129
sVdefense
p2779
I604
sVbare
p2780
I3711
sVare
p2781
I30
sVsea
p2782
I1136
sVfellow
p2783
I1768
sVclose
p2784
I411
sVarm
p2785
I1157
sVchose
p2786
I2974
sVpacific
p2787
I3471
sVpreparation
p2788
I2091
sVpractice
p2789
I1158
sVevaluation
p2790
I3446
sVspirits
p2791
I2543
sVexpert
p2792
I3542
sVvisiting
p2793
I3101
sVpictures
p2794
I1598
sVleg
p2795
I1926
sVplease
p2796
I1804
sVlibraries
p2797
I3818
sVunions
p2798
I3713
sVwon
p2799
I1611
sVvarious
p2800
I481
sVmanagers
p2801
I4193
sVprobably
p2802
I371
sVburned
p2803
I2819
sVweekly
p2804
I4208
sVconditions
p2805
I549
sVfuneral
p2806
I3331
sVsixth
p2807
I3940
sVmeal
p2808
I3588
sVeurope
p2809
I902
sVlatin
p2810
I2255
sVrecently
p2811
I855
sViron
p2812
I2610
sVunconscious
p2813
I3580
sVmissing
p2814
I3272
sVsold
p2815
I2353
sVattention
p2816
I552
sVlunch
p2817
I3279
sVaircraft
p2818
I1569
sVopposition
p2819
I2454
sVbride
p2820
I3336
sVlegislature
p2821
I2861
sVboth
p2822
I137
sVc
I875
sVlast
p2823
I147
sVlicense
p2824
I3068
sVdesired
p2825
I2239
sVcrime
p2826
I3142
sVwouldn't
p2827
I804
sVannual
p2828
I1167
sVforeign
p2829
I640
sVsensitive
p2830
I1908
sVconnection
p2831
I1574
sVbecame
p2832
I393
sVcontext
p2833
I3164
sVresidential
p2834
I2470
sVlong-term
p2835
I3379
sVtangent
p2836
I4002
sVbond
p2837
I2438
sVwhole
p2838
I314
sVfinds
p2839
I1911
sVexperimental
p2840
I2892
sVload
p2841
I2497
sVliked
p2842
I1929
sVyards
p2843
I1738
sVpoint
p2844
I234
sVsimple
p2845
I635
sVsweet
p2846
I1582
sVloan
p2847
I2439
sVcommunity
p2848
I414
sVsurplus
p2849
I3850
sVhadn't
p2850
I1084
sVdancer
p2851
I3488
sVsimply
p2852
I595
sVchurch
p2853
I281
sVsing
p2854
I3217
sVthroughout
p2855
I731
sVexpensive
p2856
I2520
sVbelt
p2857
I3620
sVdecline
p2858
I3493
sVdevil
p2859
I4164
sVdescribed
p2860
I877
sVraise
p2861
I2174
sVcreate
p2862
I2085
sVacceptance
p2863
I2272
sVpolitical
p2864
I377
sVdue
p2865
I724
sVteacher
p2866
I1358
sVwhom
p2867
I697
sVsecret
p2868
I1392
sVdamn
p2869
I3400
sVmaintenance
p2870
I1725
sVlaos
p2871
I1728
sVcollected
p2872
I2547
sVapplying
p2873
I3651
sVterritory
p2874
I3507
sVmeeting
p2875
I639
sVchandler
p2876
I3392
sVempty
p2877
I1721
sVtreatment
p2878
I825
sVfirm
p2879
I972
sVlived
p2880
I917
sVpartly
p2881
I2276
sVgay
p2882
I3589
sVsending
p2883
I3189
sVfire
p2884
I526
sVwhat's
p2885
I2115
sVcitizen
p2886
I3564
sVgas
p2887
I1087
sVprecision
p2888
I2415
sVelse
p2889
I558
sVfund
p2890
I1780
sVunderstand
p2891
I754
sVrepresentative
p2892
I2368
sVfolklore
p2893
I3808
sVdemand
p2894
I1053
sVprices
p2895
I1816
sVdespite
p2896
I1031
sVseventeen
p2897
I4217
sVextensive
p2898
I2562
sVplants
p2899
I1904
sVgeorgia
p2900
I2435
sVconception
p2901
I3364
sVlook
p2902
I230
sVraw
p2903
I2622
sVsolid
p2904
I1416
sVstraight
p2905
I928
sVbill
p2906
I713
sVbudget
p2907
I1876
sVgovernor
p2908
I1313
sVreceive
p2909
I1428
sVwhile
p2910
I146
sVreplaced
p2911
I2665
sVmatch
p2912
I2725
sVbehavior
p2913
I1132
sVerror
p2914
I3052
sVfun
p2915
I2533
sVp.
p2916
I1933
sVguide
p2917
I3039
sVengineers
p2918
I3351
sVscheduled
p2919
I2939
sV30
p2920
I957
sVhoping
p2921
I3600
sVcentury
p2922
I464
sVcents
p2923
I3977
sVgrinned
p2924
I3539
sVowen
p2925
I4092
sVmotors
p2926
I2222
sVsuspended
p2927
I3586
sVencountered
p2928
I3563
sVitself
p2929
I317
sVanode
p2930
I1403
sVready
p2931
I716
sVlimit
p2932
I2311
sVcarbon
p2933
I3550
sVneutral
p2934
I2867
sVexamine
p2935
I3280
sVsaline
p2936
I3463
sVfunny
p2937
I2700
sVitaly
p2938
I3259
sVmyth
p2939
I3144
sVgrant
p2940
I2346
sVbelong
p2941
I2982
sVtextile
p2942
I3816
sVread
p2943
I568
sVvirtually
p2944
I2732
sVwidely
p2945
I2176
sVgrand
p2946
I2297
sV9
I1779
sVresulting
p2947
I2598
sVdozen
p2948
I2148
sVcomposition
p2949
I4063
sVconflict
p2950
I2162
sVhigher
p2951
I634
sVdevelopment
p2952
I285
sVliterature
p2953
I779
sVtemporary
p2954
I3381
sVd.c.
p2955
I4093
sVaffairs
p2956
I1285
sVkeys
p2957
I3260
sVassignment
p2958
I1787
sVgallery
p2959
I3442
sVfelix
p2960
I3555
sVyesterday
p2961
I1322
sValert
p2962
I3311
sVmoment
p2963
I389
sVlevels
p2964
I1585
sVmoving
p2965
I937
sVpurpose
p2966
I682
sVnecessity
p2967
I2791
sVrecent
p2968
I551
sVearly
p2969
I266
sVlower
p2970
I856
sVtask
p2971
I1848
sVbonds
p2972
I2369
sVolder
p2973
I1164
sVsalvation
p2974
I3363
sVsubstantially
p2975
I3072
sVdepending
p2976
I3368
sVspent
p2977
I1034
sVanalysis
p2978
I992
sVobviously
p2979
I927
sVperson
p2980
I570
sVedge
p2981
I1400
sVmachinery
p2982
I1852
sVthoroughly
p2983
I2762
sVorganization
p2984
I817
sVspend
p2985
I2121
sVprevention
p2986
I3891
sVknow
p2987
I145
sVholmes
p2988
I2997
sVhonored
p2989
I4239
sVjudgments
p2990
I3913
sV-
I1393
sVcompetitive
p2991
I3472
sVsnow
p2992
I1902
sVshape
p2993
I1271
sVopenly
p2994
I3236
sVatomic
p2995
I2423
sVquestions
p2996
I738
sVusing
p2997
I703
sVuseful
p2998
I1949
sValternative
p2999
I3194
sVprince
p3000
I3287
sVwage
p3001
I1993
sVtables
p3002
I2549
sVporch
p3003
I2624
sVcut
p3004
I514
sVhelping
p3005
I2550
sVwaste
p3006
I3170
sVmajority
p3007
I1989
sVjurisdiction
p3008
I3673
sVworkers
p3009
I1265
sVdanger
p3010
I1568
sVrecommended
p3011
I2403
sVexclusively
p3012
I4232
sVsignals
p3013
I3690
sVsource
p3014
I1148
sVinternal
p3015
I1790
sVparents
p3016
I1177
sVlocation
p3017
I1749
sVcontrary
p3018
I2173
sVruled
p3019
I3481
sVadministrative
p3020
I2134
sVremaining
p3021
I2718
sVsurprised
p3022
I1944
sVchairman
p3023
I1645
sVassociations
p3024
I3596
sVwaves
p3025
I2189
sVcustomers
p3026
I2802
sVmarch
p3027
I870
sVdoors
p3028
I3073
sVemergency
p3029
I2824
sVdemands
p3030
I2039
sVbig
p3031
I273
sVcouple
p3032
I861
sVmatters
p3033
I1729
sVgame
p3034
I857
sVlogical
p3035
I3221
sVstudio
p3036
I3466
sVdamage
p3037
I3291
sVbit
p3038
I1071
sVwings
p3039
I3882
sVprojects
p3040
I1624
sVformal
p3041
I2316
sVpromising
p3042
I4196
sVsubsequent
p3043
I3681
sVlost
p3044
I574
sVfollows
p3045
I1417
sVsignal
p3046
I1751
sVpounds
p3047
I2528
sVshapes
p3048
I3684
sVflux
p3049
I3591
sVarthur
p3050
I2201
sVcontinue
p3051
I997
sVpopular
p3052
I1094
sVessential
p3053
I1351
sVmathematical
p3054
I4245
sVoften
p3055
I263
sVsenate
p3056
I1791
sVspring
p3057
I827
sVb.
p3058
I1423
sVcreation
p3059
I2419
sVsome
p3060
I75
sVback
p3061
I105
sVunderstood
p3062
I1948
sVlips
p3063
I1579
sVeconomic
p3064
I398
sVmighty
p3065
I3660
sVexamples
p3066
I2122
sVsight
p3067
I1309
sVmirror
p3068
I3893
sVcurious
p3069
I2426
sVpale
p3070
I1935
sVourselves
p3071
I1690
sVdelivered
p3072
I3005
sVgradually
p3073
I2202
sVscale
p3074
I1873
sVdull
p3075
I3884
sVsoutherners
p3076
I4018
sVtools
p3077
I3246
sVdecision
p3078
I885
sVshall
p3079
I363
sVbenefit
p3080
I1767
sVper
p3081
I258
sVreligion
p3082
I893
sVcivilization
p3083
I2645
sVeliminate
p3084
I4038
sVtends
p3085
I3220
sVanne
p3086
I2685
sVworship
p3087
I3066
sVtemple
p3088
I2940
sVminimal
p3089
I3883
sVt
I1410
sVbe
p3090
I21
sVmeasures
p3091
I2281
sVpatient
p3092
I1263
sVremembered
p3093
I1323
sVpalmer
p3094
I2023
sVcontinuing
p3095
I1843
sVagreement
p3096
I1008
sVrefused
p3097
I1853
sVstep
p3098
I792
sVnowhere
p3099
I3601
sVsanta
p3100
I3740
sVoutput
p3101
I3111
sVby
p3102
I24
sVhandled
p3103
I3959
sVfaith
p3104
I960
sVgoods
p3105
I1977
sVanything
p3106
I345
sVcigarette
p3107
I4106
sVfiring
p3108
I4256
sVmrs.
p3109
I178
sVdrama
p3110
I2621
sVrange
p3111
I645
sVinvolving
p3112
I3314
sVallotment
p3113
I2849
sVtogether
p3114
I364
sVmouth
p3115
I1039
sVconsequently
p3116
I3464
sVfarmers
p3117
I3293
sVblock
p3118
I1687
sVseeing
p3119
I1254
sVplenty
p3120
I2054
sVinto
p3121
I68
sVwithin
p3122
I275
sVoperational
p3123
I4179
sVservices
p3124
I745
sVappropriate
p3125
I1625
sVprimarily
p3126
I1723
sVreturning
p3127
I3157
sVframes
p3128
I3931
sVextraordinary
p3129
I3447
sVsports
p3130
I2286
sVjews
p3131
I2098
sVimpressed
p3132
I3547
sVprestige
p3133
I3682
sVeleven
p3134
I2748
sVconfidence
p3135
I1998
sVextremely
p3136
I2251
sVplacing
p3137
I3828
sVquestion
p3138
I378
sVlong
p3139
I133
sVu.
p3140
I1792
sVwe're
p3141
I1821
sVsuit
p3142
I2317
sVforward
p3143
I920
sVandy
p3144
I3288
sV:
I67
sVsections
p3145
I1561
sVconsiderably
p3146
I2511
sVhimself
p3147
I164
sVarise
p3148
I3767
sVelsewhere
p3149
I2485
sVinches
p3150
I1261
sVjewish
p3151
I1468
sVprecise
p3152
I3343
sVhoped
p3153
I2333
sVboys
p3154
I717
sVproperly
p3155
I2047
sVatlantic
p3156
I2747
sVlibrary
p3157
I1774
sVatom
p3158
I3012
sVrussian
p3159
I1364
sVline
p3160
I323
sVwedding
p3161
I3372
sVconsiderable
p3162
I1120
sVraising
p3163
I3239
sVdirected
p3164
I1630
sVcharacteristic
p3165
I1621
sVsounds
p3166
I2051
sVup
p3167
I64
sVus
p3168
I148
sVmobile
p3169
I2556
sVexploration
p3170
I4148
sVmature
p3171
I3454
sVboards
p3172
I2397
sVsimilar
p3173
I644
sVcalled
p3174
I228
sVbath
p3175
I3955
sVcurt
p3176
I3369
sVconstant
p3177
I1531
sVdefined
p3178
I2842
sVmetal
p3179
I1836
sVspecified
p3180
I3752
sVinfluence
p3181
I782
sVentrance
p3182
I1964
sVsingle
p3183
I584
sVwarning
p3184
I2541
sVlegend
p3185
I3989
sVnationalism
p3186
I3125
sVracial
p3187
I4090
sVcotton
p3188
I2910
sVoct.
p3189
I3746
sVamounts
p3190
I2515
sVpeace
p3191
I490
sVfears
p3192
I2347
sVoccasional
p3193
I3013
sVapplication
p3194
I1599
sVreputation
p3195
I3896
sVelectrical
p3196
I2443
sVincome
p3197
I976
sVdepartment
p3198
I426
sVnice
p3199
I1421
sVdraw
p3200
I2017
sVelements
p3201
I1002
sVmankind
p3202
I2877
sVgross
p3203
I1671
sVenterprise
p3204
I3469
sVproblems
p3205
I387
sVprepared
p3206
I1056
sVwilliam
p3207
I689
sVmeaning
p3208
I831
sVallowing
p3209
I3461
sVsmiled
p3210
I1530
sVcharming
p3211
I4191
sVsides
p3212
I1075
sVstructure
p3213
I1191
sVdimensions
p3214
I3592
sVago
p3215
I391
sVurged
p3216
I3145
sVlane
p3217
I3530
sVland
p3218
I439
sVe
I2754
sVpractically
p3219
I2140
sVage
p3220
I423
sVrequired
p3221
I542
sVholes
p3222
I2862
sVwalked
p3223
I638
sVnotion
p3224
I2774
sVdepth
p3225
I2118
sVcarrying
p3226
I1547
sVliterally
p3227
I3907
sVfar
p3228
I214
sVfresh
p3229
I1330
sVrequires
p3230
I1967
sVhaving
p3231
I346
sVonce
p3232
I184
sVcode
p3233
I2843
sVadvisory
p3234
I4206
sVoral
p3235
I3889
sVissued
p3236
I2238
sVresults
p3237
I680
sVexisting
p3238
I1868
sVillustrated
p3239
I3014
sVfog
p3240
I4083
sVgo
p3241
I157
sVbomb
p3242
I3053
sVadjustment
p3243
I3181
sVmercer
p3244
I1537
sVcenters
p3245
I2166
sVissues
p3246
I1674
sVseemed
p3247
I286
sVdetergent
p3248
I4158
sVconcerned
p3249
I766
sVyoung
p3250
I243
sVsend
p3251
I1469
sVnose
p3252
I1863
sVliterary
p3253
I1387
sVhelps
p3254
I3489
sVstable
p3255
I3568
sVsuite
p3256
I3885
sVinclude
p3257
I946
sVfriendly
p3258
I1811
sVsent
p3259
I700
sVrandom
p3260
I2915
sVwished
p3261
I2072
sVgarden
p3262
I1857
sVscattered
p3263
I3863
sVcontinues
p3264
I2735
sVschedule
p3265
I3090
sVwave
p3266
I2407
sVelectron
p3267
I3653
sVputting
p3268
I2086
sVsensitivity
p3269
I3716
sVtelling
p3270
I2150
sVartery
p3271
I2436
sVdrinking
p3272
I2313
sVcontinued
p3273
I780
sVcategories
p3274
I4211
sVentire
p3275
I679
sVrecreation
p3276
I2603
sVmagic
p3277
I2996
sValec
p3278
I4074
sVharbor
p3279
I2958
sVpositions
p3280
I2075
sVnotes
p3281
I1990
sVf
I3083
sVattempts
p3282
I2948
sVfewer
p3283
I3268
sVtry
p3284
I741
sVthreat
p3285
I2683
sVrace
p3286
I1045
sVdemonstrated
p3287
I3275
sVrealization
p3288
I4265
sS'PAD'
p3289
I0
sVrefer
p3290
I3876
sVnoted
p3291
I1202
sVsewage
p3292
I3677
sVsolutions
p3293
I3679
sVconcluded
p3294
I3376
sVsmaller
p3295
I1398
sVyou'd
p3296
I3050
sVjump
p3297
I4190
sVpicked
p3298
I1396
sVdisturbed
p3299
I3930
sVodd
p3300
I2553
sVfolk
p3301
I3199
sVuniversities
p3302
I3432
sVindex
p3303
I1345
sVplays
p3304
I1689
sVbusiness
p3305
I239
sVpaintings
p3306
I3079
sVchicago
p3307
I1105
sVgiving
p3308
I1125
sVcolonel
p3309
I3002
sVkingdom
p3310
I3983
sVreaching
p3311
I2573
sVexpressed
p3312
I1444
sVman's
p3313
I842
sVcell
p3314
I1715
sVpaying
p3315
I3982
sVwaiting
p3316
I971
sVexperiment
p3317
I1752
sVeating
p3318
I3422
sVcurrently
p3319
I3245
sVcapital
p3320
I1280
sVfrequent
p3321
I3254
sVcrossed
p3322
I2661
sV;
I22
sVbird
p3323
I3455
sVexercise
p3324
I1937
sVbody
p3325
I350
sVcompletion
p3326
I1966
sVled
p3327
I783
sVmeasurements
p3328
I2073
sVdegree
p3329
I839
sVexchange
p3330
I1565
sVrespectively
p3331
I3501
sVgathered
p3332
I3418
sVcommercial
p3333
I1827
sVgrowing
p3334
I985
sVobjects
p3335
I1704
sVlet
p3336
I246
sVothers
p3337
I296
sVconsideration
p3338
I2290
sVfifteen
p3339
I1997
sVextreme
p3340
I1805
sVgreat
p3341
I150
sVtalent
p3342
I2758
sVlieutenant
p3343
I3633
sVtechnical
p3344
I880
sVinvolved
p3345
I693
sV31
p3346
I2929
sVlarger
p3347
I854
sVleaving
p3348
I1216
sVengine
p3349
I2254
sVsuggests
p3350
I3634
sVproducts
p3351
I984
sVdefeat
p3352
I3502
sVopinion
p3353
I1131
sVmakes
p3354
I583
sVhonor
p3355
I1663
sVinvolves
p3356
I2733
sVcomposed
p3357
I2746
sVnamed
p3358
I1293
sVstockholders
p3359
I3966
sVclark
p3360
I3113
sVheart
p3361
I578
sVwin
p3362
I2048
sVworthy
p3363
I3757
sVprivate
p3364
I518
sVbend
p3365
I4212
sVhardy
p3366
I2637
sVaboard
p3367
I4068
sVnames
p3368
I1209
sVmotor
p3369
I2024
sVapply
p3370
I2025
sVadministration
p3371
I633
sVsinging
p3372
I2390
sVcloud
p3373
I3747
sVstanding
p3374
I1062
sVuse
p3375
I166
sVfrom
p3376
I32
sVstream
p3377
I2219
sV&
I618
sVremains
p3378
I1296
sVloans
p3379
I3419
sVhudson
p3380
I2135
sVexamined
p3381
I3726
sVnext
p3382
I236
sVfew
p3383
I165
sVdoubt
p3384
I929
sVexamination
p3385
I3635
sVvehicle
p3386
I3171
sVd
I2245
sVthemselves
p3387
I359
sVpanel
p3388
I3483
sVdreams
p3389
I3583
sVswitches
p3390
I4027
sVsort
p3391
I614
sVpencil
p3392
I3187
sVcomparison
p3393
I2329
sVstarted
p3394
I511
sVbecomes
p3395
I1037
sVpatrol
p3396
I4156
sVoccurred
p3397
I1639
sVwildly
p3398
I4172
sVmissile
p3399
I2309
sVtrail
p3400
I3490
sVtrain
p3401
I1334
sVsharply
p3402
I2904
sVbaby
p3403
I1772
sVrare
p3404
I2698
sVappointed
p3405
I2629
sVwomen
p3406
I508
sVcustomer
p3407
I3825
sVpaused
p3408
I3805
sVaccount
p3409
I907
sVanimals
p3410
I1945
sVeffectively
p3411
I2985
sVthis
p3412
I26
sVgovernments
p3413
I1842
sVoh
p3414
I864
sVanywhere
p3415
I2852
sVobvious
p3416
I1171
sVthin
p3417
I1173
sVdrill
p3418
I3294
sVof
p3419
I4
sVmeet
p3420
I678
sVclosing
p3421
I3734
sVinstitute
p3422
I2259
sVproof
p3423
I2818
sVcontrol
p3424
I430
sVcontinuity
p3425
I4152
sVslid
p3426
I4237
sVreserved
p3427
I3894
sVbent
p3428
I3204
sVe.g.
p3429
I3426
sVprocess
p3430
I499
sVfavorite
p3431
I2731
sVauthorized
p3432
I2992
sVtax
p3433
I480
sVpurposes
p3434
I1199
sVpieces
p3435
I1174
sVhigh
p3436
I186
sVprofessor
p3437
I1961
sVpulling
p3438
I4065
sVsomething
p3439
I201
sVsought
p3440
I2053
sVdominant
p3441
I1702
sVvoice
p3442
I424
sVnative
p3443
I2450
sVsir
p3444
I1142
sVeducational
p3445
I1549
sVunited
p3446
I193
sVvaried
p3447
I2635
sVdemocracy
p3448
I4248
sVsit
p3449
I1651
sVsix
p3450
I436
sVcady
p3451
I3917
sVpoetry
p3452
I1221
sVarrangement
p3453
I3230
sVregions
p3454
I2780
sVlocated
p3455
I1726
sVresponsibilities
p3456
I4170
sVforest
p3457
I1680
sVanimal
p3458
I1608
sVbrannon
p3459
I3698
sVinstead
p3460
I580
sVcomedy
p3461
I2825
sVestablishment
p3462
I2168
sVsin
p3463
I2137
sVstock
p3464
I692
sVtension
p3465
I1894
sVbuildings
p3466
I1425
sVblocks
p3467
I2978
sVattend
p3468
I2081
sVfarm
p3469
I850
sVstop
p3470
I878
sVwaters
p3471
I2680
sVphilosophy
p3472
I1257
sVcollection
p3473
I1301
sVstars
p3474
I3626
sVpreferred
p3475
I4024
sVrealized
p3476
I1575
sVretirement
p3477
I3996
sVpurely
p3478
I3614
sVthey'd
p3479
I3553
sVlight
p3480
I288
sVcounter
p3481
I3474
sVlines
p3482
I494
sVelement
p3483
I2160
sVchief
p3484
I895
sVcourage
p3485
I3387
sVallow
p3486
I1505
sVserving
p3487
I2889
sVdivided
p3488
I2058
sVfurnish
p3489
I3701
sVhouston
p3490
I4049
sVholds
p3491
I2636
sVmove
p3492
I594
sVencouraged
p3493
I3707
sVoutlook
p3494
I3037
sVbacked
p3495
I4200
sVinterpreted
p3496
I4205
sVproduced
p3497
I1200
sVrendered
p3498
I3758
sVwon't
p3499
I1020
sVlooks
p3500
I1399
sVmentioned
p3501
I1382
sVagricultural
p3502
I2930
sVwarren
p3503
I2206
sVperfect
p3504
I1913
sVwrite
p3505
I1013
sVremark
p3506
I3465
sVla
p3507
I2158
sVchosen
p3508
I1541
sVships
p3509
I2596
sVstate's
p3510
I2888
sVlabor
p3511
I681
sVwilling
p3512
I1590
sVchoose
p3513
I2263
sVinstruments
p3514
I3956
sVcovered
p3515
I1038
sVsocieties
p3516
I2711
sVspot
p3517
I1963
sVhoney
p3518
I4086
sVdesigns
p3519
I3741
sVcrucial
p3520
I3581
sVgreater
p3521
I524
sVdan
p3522
I3919
sVmaterial
p3523
I572
sV**zg
p3524
I3371
sVhate
p3525
I2651
sVmention
p3526
I2260
sVcutting
p3527
I1676
sVsnake
p3528
I2512
sVhands
p3529
I329
sVfront
p3530
I435
sVrepublican
p3531
I2082
sVday
p3532
I142
sVemotion
p3533
I3185
sVarticles
p3534
I3450
sVfebruary
p3535
I2502
sVprofound
p3536
I3869
sVl.
p3537
I2010
sVintelligent
p3538
I3933
sVuniversity
p3539
I447
sVcovering
p3540
I3397
sVidentified
p3541
I2451
sVsufficiently
p3542
I2640
sVdelightful
p3543
I3967
sVmagnitude
p3544
I3696
sVtruth
p3545
I836
sVinterview
p3546
I3303
sVpromise
p3547
I2468
sVbeneath
p3548
I1980
sVbills
p3549
I2380
sVexperienced
p3550
I2132
sVbrush
p3551
I2565
sVrecommend
p3552
I4111
sVdoing
p3553
I621
sVharris
p3554
I3739
sVcuba
p3555
I2383
sVrelated
p3556
I1057
sVconstitute
p3557
I3628
sVsociety
p3558
I408
sVbooks
p3559
I1121
sVmeasure
p3560
I1192
sVour
p3561
I90
sVbay
p3562
I1983
sVsexual
p3563
I1880
sVslipped
p3564
I3378
sVspecial
p3565
I385
sVout
p3566
I60
sV'
I301
sVbag
p3567
I2678
sVoccupied
p3568
I3100
sVwholly
p3569
I4225
sVcritics
p3570
I4035
sVtilghman
p3571
I4134
sVnarrative
p3572
I4257
sVelectronics
p3573
I3389
sVcause
p3574
I797
sVsacrifice
p3575
I3603
sVannounced
p3576
I1224
sVone's
p3577
I1699
sVafford
p3578
I2766
sVshut
p3579
I2440
sVapproached
p3580
I2464
sVdictionary
p3581
I1991
sVfrank
p3582
I1617
sVpromptly
p3583
I3768
sVfourteen
p3584
I3440
sVcompletely
p3585
I968
sVsurely
p3586
I2359
sVyork
p3587
I319
sVlatest
p3588
I3138
sVreporters
p3589
I3225
sVfallout
p3590
I3509
sVpresently
p3591
I3116
sVorganic
p3592
I2902
sVprepare
p3593
I3130
sVdetermining
p3594
I3273
sVcould
p3595
I76
sVkeep
p3596
I368
sVconversation
p3597
I2261
sVlength
p3598
I910
sVallied
p3599
I3631
sVhence
p3600
I1922
sVears
p3601
I2895
sVmuseum
p3602
I3423
sVsouth
p3603
I403
sVmad
p3604
I2868
sVplastics
p3605
I3478
sVmartin
p3606
I2063
sVtroubled
p3607
I3437
sVpowerful
p3608
I1743
sVscene
p3609
I1006
sVowned
p3610
I3205
sVjesus
p3611
I1750
sVwalter
p3612
I2811
sVcongo
p3613
I1968
sVowner
p3614
I3295
sVreached
p3615
I600
sVprecisely
p3616
I2320
sVquality
p3617
I935
sVdisaster
p3618
I3963
sVlegislative
p3619
I2771
sVdoesn't
p3620
I1217
sVmanagement
p3621
I1187
sVreference
p3622
I1640
sVlos
p3623
I2209
sVfestival
p3624
I3826
sVunknown
p3625
I2354
sVdemonstration
p3626
I4171
sVassure
p3627
I2987
sVsystem
p3628
I218
sVrelations
p3629
I1058
sVtheir
p3630
I47
sVattack
p3631
I1022
sVsergeant
p3632
I3720
sVperfectly
p3633
I3485
sVfinal
p3634
I650
sVpainful
p3635
I4094
sVbeard
p3636
I4031
sVinterests
p3637
I1302
sVstomach
p3638
I2980
sVbranch
p3639
I3352
sVshorts
p3640
I3663
sVacademy
p3641
I4234
sVcompleted
p3642
I1592
sVexactly
p3643
I1050
sVdebate
p3644
I3433
sVnegro
p3645
I1004
sVhistorian
p3646
I3607
sVelaborate
p3647
I3394
sVbranches
p3648
I3346
sVjuly
p3649
I1681
sVherself
p3650
I841
sVinstitution
p3651
I2742
sVneck
p3652
I1349
sVsteel
p3653
I2469
sVloved
p3654
I2020
sVwarfare
p3655
I2599
sVbed
p3656
I826
sVprokofieff
p3657
I3339
sVroberts
p3658
I2998
sVlong-range
p3659
I2664
sVpatients
p3660
I3069
sVindividual
p3661
I404
sVnervous
p3662
I4222
sVvisited
p3663
I2688
sVproviding
p3664
I1890
sVdistinguished
p3665
I2647
sVdrunk
p3666
I2977
sVfalse
p3667
I3623
sVlightly
p3668
I3459
sVcatholics
p3669
I3350
sVgently
p3670
I3475
sVcomfortable
p3671
I2986
sVtonight
p3672
I2884
sVdiscussions
p3673
I3361
sVhave
p3674
I34
sVneed
p3675
I272
sVexhibit
p3676
I4107
sVpresidential
p3677
I3226
sVtrembling
p3678
I3954
sVapparently
p3679
I844
sVclearly
p3680
I815
sVviewed
p3681
I4165
sVcatholic
p3682
I1298
sVafraid
p3683
I1992
sVangle
p3684
I2212
sVpupils
p3685
I4080
sVrussians
p3686
I3494
sVdallas
p3687
I1952
sVstudying
p3688
I2772
sVagency
p3689
I2026
sVable
p3690
I446
sVecumenical
p3691
I3670
sVcontact
p3692
I1762
sVinstance
p3693
I1329
sVconcerns
p3694
I2579
sVwhich
p3695
I37
sVbus
p3696
I3212
sVtruck
p3697
I1979
sVsubject
p3698
I631
sVaccuracy
p3699
I3077
sVunless
p3700
I1072
sVcombat
p3701
I3870
sVknees
p3702
I2937
sVwho
p3703
I55
sVscenes
p3704
I3666
sVeight
p3705
I1035
sVdevice
p3706
I2060
sVwhy
p3707
I225
sVprobable
p3708
I4167
sVso-called
p3709
I3356
sVdeny
p3710
I2398
sVvolunteers
p3711
I3692
sVconsequences
p3712
I3133
sVabsolutely
p3713
I3834
sVneighboring
p3714
I4259
sVenthusiastic
p3715
I4226
sVrequest
p3716
I2265
sVdisease
p3717
I2110
sVpsychological
p3718
I2712
sVface
p3719
I259
sVlooked
p3720
I265
sVyou'll
p3721
I1197
sVgesture
p3722
I3384
sVmechanical
p3723
I3227
sVoccasion
p3724
I1920
sVpainting
p3725
I1896
sVfact
p3726
I202
sVgoals
p3727
I2794
sVson
p3728
I610
sVimpression
p3729
I2504
sVatmosphere
p3730
I1380
sVparker
p3731
I1753
sVexclusive
p3732
I3817
sVchances
p3733
I4260
sVtext
p3734
I1874
sVagreed
p3735
I1343
sVcharles
p3736
I1126
sVscotty
p3737
I3357
sVanyway
p3738
I2420
sVbring
p3739
I641
sVplanning
p3740
I808
sVmanchester
p3741
I2526
sVdemocrats
p3742
I2786
sVbedroom
p3743
I2169
sVsoldiers
p3744
I2018
sVfear
p3745
I822
sVpleased
p3746
I2696
sVdecade
p3747
I2427
sVprincipal
p3748
I1170
sVwear
p3749
I3117
sVcommunism
p3750
I1555
sVbased
p3751
I890
sVknowledge
p3752
I698
sVmud
p3753
I3373
sVholder
p3754
I3867
sV(
I53
sVincident
p3755
I2283
sVshould
p3756
I113
sVscore
p3757
I1664
sVcandidates
p3758
I2953
sVemployed
p3759
I2292
sVcommunist
p3760
I1107
sVpartially
p3761
I4120
sVlocal
p3762
I330
sVhope
p3763
I555
sVfinger
p3764
I2776
sVmeant
p3765
I1078
sVhandle
p3766
I2126
sVlistened
p3767
I3575
sVmeans
p3768
I313
sVbeat
p3769
I1631
sVfamiliar
p3770
I1518
sVbear
p3771
I1984
sVjoint
p3772
I2835
sVones
p3773
I914
sVwords
p3774
I357
sVtossed
p3775
I3439
sVprocedures
p3776
I1828
sVareas
p3777
I409
sVgray
p3778
I1368
sVprocesses
p3779
I1974
sVevident
p3780
I2008
sVended
p3781
I1846
sVshopping
p3782
I3916
sVnumerous
p3783
I2379
sVmarried
p3784
I1024
sVtaxes
p3785
I2458
sVcalling
p3786
I2507
sVstuff
p3787
I3358
sVshe
p3788
I44
sVdangerous
p3789
I2452
sVincluding
p3790
I591
sVfixed
p3791
I1237
sVconduct
p3792
I2043
sVview
p3793
I532
sVavailable
p3794
I394
sVrequirement
p3795
I3866
sVexists
p3796
I2681
sVacquired
p3797
I4015
sVnational
p3798
I254
sVedition
p3799
I2979
sVintensity
p3800
I2000
sVofficials
p3801
I1773
sVpowder
p3802
I3810
sVdesperate
p3803
I3997
sVoperated
p3804
I3829
sVchild's
p3805
I3267
sVcreating
p3806
I3683
sVcloser
p3807
I1845
sVwire
p3808
I2675
sVrecord
p3809
I756
sVpattern
p3810
I953
sVtend
p3811
I2572
sVfavor
p3812
I1390
sVwritten
p3813
I658
sVdifficulties
p3814
I2410
sVidentification
p3815
I2581
sVmills
p3816
I3396
sVclosed
p3817
I1016
sVroutine
p3818
I3175
sVprogress
p3819
I883
sVneither
p3820
I729
sVpistol
p3821
I3879
sVbought
p3822
I2003
sVindustries
p3823
I3062
sVends
p3824
I1647
sVability
p3825
I1463
sVopening
p3826
I1305
sVimportance
p3827
I991
sVjoy
p3828
I2764
sVagencies
p3829
I1801
sVefficiency
p3830
I2258
sVjob
p3831
I406
sVjoe
p3832
I2034
sVkey
p3833
I1230
sVpolice
p3834
I653
sVprecious
p3835
I3645
sVswift
p3836
I3327
sVproblem
p3837
I304
sVdavid
p3838
I2193
sVrestrictions
p3839
I3853
sVinstant
p3840
I2914
sVlimits
p3841
I2693
sVcareer
p3842
I1655
sVtaking
p3843
I562
sVequal
p3844
I1195
sVminds
p3845
I2019
sVtrips
p3846
I3618
sVapril
p3847
I1532
sVadmit
p3848
I3003
sVfigures
p3849
I948
sVpassing
p3850
I1700
sVcamera
p3851
I3040
sVjersey
p3852
I4109
sVotherwise
p3853
I1268
sVcomment
p3854
I2649
sVstrongly
p3855
I3015
sVadjusted
p3856
I3296
sVjim
p3857
I3032
sVagents
p3858
I2841
sVwall
p3859
I636
sVremoval
p3860
I2709
sVtuesday
p3861
I1916
sVover-all
p3862
I3163
sVirish
p3863
I3780
sVwalk
p3864
I1081
sVconcepts
p3865
I3903
sVgreg
p3866
I3942
sVlaugh
p3867
I3756
sVcousin
p3868
I2183
sVtable
p3869
I492
sVpulmonary
p3870
I3871
sVacres
p3871
I2534
sVhe'd
p3872
I1106
sVi.e.
p3873
I2607
sVmaid
p3874
I3514
sVaddition
p3875
I722
sVit's
p3876
I318
sVcent
p3877
I651
sVrhode
p3878
I1026
sVliberals
p3879
I3946
sVpermanent
p3880
I2785
sVslowly
p3881
I923
sVtreat
p3882
I4032
sVinadequate
p3883
I3412
sVpoet
p3884
I1091
sVproposal
p3885
I2724
sVimprove
p3886
I2853
sVlouisiana
p3887
I3576
sVkilled
p3888
I1439
sVdefine
p3889
I3920
sVfaced
p3890
I2093
sVmike
p3891
I1190
sVdescribe
p3892
I2705
sVcontrolled
p3893
I2828
sVc.
p3894
I1162
sVleague
p3895
I1578
sVpainted
p3896
I2787
sVam
p3897
I407
sVsufficient
p3898
I1759
sVprotect
p3899
I3215
sVal
p3900
I4091
sVfinished
p3901
I1247
sVours
p3902
I3861
sVimproved
p3903
I2059
sVatlanta
p3904
I3126
sVgeneral
p3905
I185
sVpresent
p3906
I252
sVhomes
p3907
I1806
sVprospect
p3908
I4088
sVnovel
p3909
I1891
sVsurvey
p3910
I2959
sVunlike
p3911
I2669
sVplain
p3912
I2334
sVrestaurant
p3913
I2695
sVappearance
p3914
I1985
sVbritain
p3915
I2070
sVvalue
p3916
I485
sVspecifically
p3917
I2912
sVwill
p3918
I56
sVpaul
p3919
I2941
sVwild
p3920
I2027
sVcarleton
p3921
I3664
sVbarely
p3922
I3500
sValmost
p3923
I210
sVthus
p3924
I309
sVsite
p3925
I1733
sVsurface
p3926
I482
sVhelped
p3927
I1691
sVarrangements
p3928
I2899
sVdemanded
p3929
I2658
sVpolitics
p3930
I1589
sVclaimed
p3931
I3176
sVpartner
p3932
I3370
sVfinance
p3933
I3460
sVshooting
p3934
I2336
sV)
I51
sVdiscipline
p3935
I3892
sVbegan
p3936
I308
sVcivilian
p3937
I4182
sVradiation
p3938
I1115
sVroman
p3939
I1939
sVcampus
p3940
I3274
sVmember
p3941
I758
sVguns
p3942
I2655
sVwhen
p3943
I54
sVstrange
p3944
I1297
sVspeaker
p3945
I2266
sVnorthwest
p3946
I4066
sVlargest
p3947
I2113
sVunits
p3948
I1244
sVparty
p3949
I443
sVgets
p3950
I1682
sVdifficult
p3951
I630
sVresponses
p3952
I3815
sVball
p3953
I964
sVslave
p3954
I3548
sVflesh
p3955
I2161
sVdrink
p3956
I1331
sVupon
p3957
I187
sVeffect
p3958
I452
sVv.
p3959
I3476
sVflew
p3960
I3902
sVstudent
p3961
I793
sVdust
p3962
I1557
sVfrequently
p3963
I1188
sVjudgment
p3964
I1910
sVscholars
p3965
I3921
sVidentity
p3966
I2030
sVpull
p3967
I2177
sVscarcely
p3968
I4192
sVargue
p3969
I3656
sVoff
p3970
I153
sVcenter
p3971
I427
sVfully
p3972
I1363
sVi
I25
sVweapon
p3973
I2650
sVcontest
p3974
I3960
sVwell
p3975
I111
sVfighting
p3976
I1512
sVthought
p3977
I180
sVpatterns
p3978
I2342
sVqualified
p3979
I4203
sVcommand
p3980
I1506
sVenglish
p3981
I509
sVposition
p3982
I401
sVmuscle
p3983
I2666
sVsoviet
p3984
I810
sVdrawing
p3985
I2792
sVusual
p3986
I1127
sVstores
p3987
I3118
sVcried
p3988
I3569
sVless
p3989
I208
sVmoments
p3990
I2232
sVkhrushchev
p3991
I1622
sVaccurate
p3992
I3134
sVexecutive
p3993
I2066
sVdomestic
p3994
I1770
sVobtain
p3995
I2670
sVsources
p3996
I1233
sVstored
p3997
I3038
sVdistant
p3998
I2967
sVrooms
p3999
I2046
sVtough
p4000
I3093
sVskill
p4001
I2676
sVgraduate
p4002
I3599
sVdrying
p4003
I3685
sVmysterious
p4004
I3993
sVgenerous
p4005
I4095
sVrapid
p4006
I2597
sVfarther
p4007
I3398
sVdensity
p4008
I3443
sVprovision
p4009
I2386
sVsupply
p4010
I1054
sVsky
p4011
I1955
sVlake
p4012
I2100
sV1958
p4013
I1186
sVreasons
p4014
I1044
sVadd
p4015
I1229
sVother
p4016
I73
sVnato
p4017
I4110
sVdevelopments
p4018
I2561
sVwet
p4019
I2105
sVought
p4020
I1601
sVidentical
p4021
I3521
sVtests
p4022
I1817
sVincreased
p4023
I695
sVprovisions
p4024
I2836
sVgovernment
p4025
I217
sVincreases
p4026
I1519
sVfive
p4027
I335
sVwhatever
p4028
I958
sVburden
p4029
I2557
sVdesk
p4030
I1711
sVpress
p4031
I823
sVimmediately
p4032
I858
sVpalfrey
p4033
I4016
sVprominent
p4034
I2777
sVloss
p4035
I1250
sVlincoln
p4036
I2348
sVquarters
p4037
I3745
sVnecessary
p4038
I431
sVlike
p4039
I89
sVsuccess
p4040
I1159
sVring
p4041
I2344
sVadmitted
p4042
I2521
sVtestimony
p4043
I2388
sVtraders
p4044
I3978
sVpayments
p4045
I2267
sVlose
p4046
I1917
sVbecome
p4047
I274
sVworks
p4048
I798
sVsoft
p4049
I1844
sVpage
p4050
I1678
sVregardless
p4051
I2887
sVitalian
p4052
I2375
sVbecause
p4053
I114
sVclassical
p4054
I3281
sVsequence
p4055
I3182
sVvillage
p4056
I1502
sVphenomena
p4057
I3998
sVauthority
p4058
I1160
sVhair
p4059
I685
sVgrowth
p4060
I655
sVrecommendation
p4061
I4202
sVproper
p4062
I1141
sVhome
p4063
I175
sVpeter
p4064
I3080
sVemployment
p4065
I2355
sVrecognition
p4066
I2513
sVhappens
p4067
I2760
sVanti-trust
p4068
I4012
sVcharges
p4069
I2501
sVlead
p4070
I814
sVarlene
p4071
I3979
sVbroad
p4072
I1288
sVavoid
p4073
I1927
sVdelaware
p4074
I3886
sVmines
p4075
I3769
sVconstantly
p4076
I2713
sVdisk
p4077
I4154
sVshelter
p4078
I1562
sVdoes
p4079
I191
sVpassion
p4080
I3721
sVleader
p4081
I1477
sV?
I28
sVlimitations
p4082
I3727
sVpoets
p4083
I3434
sVnoise
p4084
I3024
sVslight
p4085
I2123
sVjournal
p4086
I2662
sVexpansion
p4087
I2361
sVpeas
p4088
I4241
sVpaper
p4089
I643
sVpressure
p4090
I533
sVhost
p4091
I3102
sValthough
p4092
I297
sVaccompanied
p4093
I3016
sVincludes
p4094
I2480
sVintense
p4095
I2817
sVtrials
p4096
I2863
sVcounties
p4097
I3149
sVstage
p4098
I561
sVgained
p4099
I2844
sVpike
p4100
I2697
sVabout
p4101
I66
sVactual
p4102
I1088
sVcarried
p4103
I840
sVextension
p4104
I3070
sVgetting
p4105
I616
sVcolumn
p4106
I1539
sVfreedom
p4107
I819
sVconsciousness
p4108
I3582
sVrecognized
p4109
I1365
sVangeles
p4110
I2360
sVseeds
p4111
I2641
sVtongue
p4112
I3154
sVintroduced
p4113
I2151
sVswimming
p4114
I2960
sVdesires
p4115
I4233
sVequally
p4116
I1794
sVown
p4117
I130
sVletters
p4118
I916
sVcoverage
p4119
I4104
sVpreviously
p4120
I1918
sVtight
p4121
I3776
sVwashington
p4122
I469
sVfunctional
p4123
I4249
sVguard
p4124
I2335
sVweather
p4125
I1583
sVh.
p4126
I1538
sVtiny
p4127
I2227
sVfemale
p4128
I2228
sVartists
p4129
I2064
sVroads
p4130
I1946
sVquickly
p4131
I1211
sVmere
p4132
I2384
sVutility
p4133
I3697
sVmississippi
p4134
I2850
sVvan
p4135
I3411
sVadditional
p4136
I876
sVrushed
p4137
I3837
sVtransfer
p4138
I2837
sVhousing
p4139
I1885
sVreduction
p4140
I2684
sVspots
p4141
I3420
sVnoticed
p4142
I2234
sVintention
p4143
I3071
sVprospects
p4144
I4267
sVinner
p4145
I2041
sVbiggest
p4146
I4250
sVrode
p4147
I2749
sVnaturally
p4148
I1558
sVfunction
p4149
I949
sVbuilding
p4150
I637
sVbuy
p4151
I1564
sVnorth
p4152
I466
sVstadium
p4153
I4123
sVpressed
p4154
I3621
sVi've
p4155
I849
sVfunds
p4156
I1144
sVbut
p4157
I31
sVtransformed
p4158
I4099
sVvolume
p4159
I762
sVrepeated
p4160
I1886
sVconstruction
p4161
I1137
sVgain
p4162
I1457
sVcourts
p4163
I2249
sVflexible
p4164
I4098
sVhelpful
p4165
I3654
sVhighest
p4166
I1744
sVeat
p4167
I1829
sVwitness
p4168
I3719
sVhe
p4169
I12
sVcount
p4170
I2273
sVmade
p4171
I96
sVwise
p4172
I3063
sVplaces
p4173
I1073
sVnoon
p4174
I4162
sVwhether
p4175
I334
sVwish
p4176
I966
sVcells
p4177
I1354
sVofficial
p4178
I1438
sVsmooth
p4179
I2642
sVsigned
p4180
I3020
sVexcitement
p4181
I3359
sVplaced
p4182
I835
sVbelow
p4183
I704
sVstories
p4184
I1897
sVruling
p4185
I4261
sVdemonstrate
p4186
I3770
sVdistribution
p4187
I1274
sVpiece
p4188
I812
sVminutes
p4189
I501
sVdisplay
p4190
I2694
sVbearing
p4191
I4096
sVsupreme
p4192
I2218
sVentering
p4193
I4183
sVrecognize
p4194
I1781
sVuniversal
p4195
I2461
sVcontribute
p4196
I2545
sVperiods
p4197
I2350
sVet
p4198
I3615
sVflight
p4199
I2414
sVeducation
p4200
I448
sVhappen
p4201
I1764
sVcavalry
p4202
I4033
sVfunctions
p4203
I2298
sVcompared
p4204
I1527
sVvariety
p4205
I1272
sVcorporation
p4206
I1196
sVattacked
p4207
I4052
sVpercent
p4208
I2147
sVdetail
p4209
I1499
sV40
p4210
I2797
sVillinois
p4211
I2820
sVbook
p4212
I497
sVdetails
p4213
I1957
sVsick
p4214
I2220
sVillusion
p4215
I2961
sVreaches
p4216
I4072
sVconclusion
p4217
I1882
sVfrancisco
p4218
I2701
sVkinds
p4219
I3051
sVmonday
p4220
I1626
sVconsisted
p4221
I4197
sVworker
p4222
I3571
sVclass
p4223
I465
sVjune
p4224
I1092
sVvariation
p4225
I3402
sVstay
p4226
I944
sVchance
p4227
I794
sVrural
p4228
I2083
sVbasement
p4229
I3506
sVfriends
p4230
I628
sVvein
p4231
I4129
sVexposure
p4232
I4050
sVresolution
p4233
I1740
sVbaker
p4234
I3064
sVfactors
p4235
I1015
sVrule
p4236
I1489
sVportion
p4237
I1803
sVvolumes
p4238
I2551
sVlives
p4239
I1341
sVgardens
p4240
I3360
s.